ARM GAS  C:\Users\sst5281\AppData\Local\Temp\cc7UPhI8.s 			page 1


   1              		.cpu cortex-m0
   2              		.fpu softvfp
   3              		.eabi_attribute 20, 1
   4              		.eabi_attribute 21, 1
   5              		.eabi_attribute 23, 3
   6              		.eabi_attribute 24, 1
   7              		.eabi_attribute 25, 1
   8              		.eabi_attribute 26, 1
   9              		.eabi_attribute 30, 1
  10              		.eabi_attribute 34, 0
  11              		.eabi_attribute 18, 4
  12              		.code	16
  13              		.file	"isr_2.c"
  14              		.text
  15              	.Ltext0:
  16              		.cfi_sections	.debug_frame
  17              		.section	.text.isr_2_Interrupt,"ax",%progbits
  18              		.align	2
  19              		.global	isr_2_Interrupt
  20              		.code	16
  21              		.thumb_func
  22              		.type	isr_2_Interrupt, %function
  23              	isr_2_Interrupt:
  24              	.LFB5:
  25              		.file 1 ".\\Generated_Source\\PSoC4\\isr_2.c"
   1:.\Generated_Source\PSoC4/isr_2.c **** /*******************************************************************************
   2:.\Generated_Source\PSoC4/isr_2.c **** * File Name: isr_2.c  
   3:.\Generated_Source\PSoC4/isr_2.c **** * Version 1.70
   4:.\Generated_Source\PSoC4/isr_2.c **** *
   5:.\Generated_Source\PSoC4/isr_2.c **** *  Description:
   6:.\Generated_Source\PSoC4/isr_2.c **** *   API for controlling the state of an interrupt.
   7:.\Generated_Source\PSoC4/isr_2.c **** *
   8:.\Generated_Source\PSoC4/isr_2.c **** *
   9:.\Generated_Source\PSoC4/isr_2.c **** *  Note:
  10:.\Generated_Source\PSoC4/isr_2.c **** *
  11:.\Generated_Source\PSoC4/isr_2.c **** ********************************************************************************
  12:.\Generated_Source\PSoC4/isr_2.c **** * Copyright 2008-2015, Cypress Semiconductor Corporation.  All rights reserved.
  13:.\Generated_Source\PSoC4/isr_2.c **** * You may use this file only in accordance with the license, terms, conditions, 
  14:.\Generated_Source\PSoC4/isr_2.c **** * disclaimers, and limitations in the end user license agreement accompanying 
  15:.\Generated_Source\PSoC4/isr_2.c **** * the software package with which this file was provided.
  16:.\Generated_Source\PSoC4/isr_2.c **** *******************************************************************************/
  17:.\Generated_Source\PSoC4/isr_2.c **** 
  18:.\Generated_Source\PSoC4/isr_2.c **** 
  19:.\Generated_Source\PSoC4/isr_2.c **** #include <cydevice_trm.h>
  20:.\Generated_Source\PSoC4/isr_2.c **** #include <CyLib.h>
  21:.\Generated_Source\PSoC4/isr_2.c **** #include <isr_2.h>
  22:.\Generated_Source\PSoC4/isr_2.c **** #include "cyapicallbacks.h"
  23:.\Generated_Source\PSoC4/isr_2.c **** 
  24:.\Generated_Source\PSoC4/isr_2.c **** #if !defined(isr_2__REMOVED) /* Check for removal by optimization */
  25:.\Generated_Source\PSoC4/isr_2.c **** 
  26:.\Generated_Source\PSoC4/isr_2.c **** /*******************************************************************************
  27:.\Generated_Source\PSoC4/isr_2.c **** *  Place your includes, defines and code here 
  28:.\Generated_Source\PSoC4/isr_2.c **** ********************************************************************************/
  29:.\Generated_Source\PSoC4/isr_2.c **** /* `#START isr_2_intc` */
  30:.\Generated_Source\PSoC4/isr_2.c **** #include <PWM_1.h>
  31:.\Generated_Source\PSoC4/isr_2.c **** uint8 count_isr2=0;
  32:.\Generated_Source\PSoC4/isr_2.c **** uint32 tempCompare=0;
ARM GAS  C:\Users\sst5281\AppData\Local\Temp\cc7UPhI8.s 			page 2


  33:.\Generated_Source\PSoC4/isr_2.c **** /* `#END` */
  34:.\Generated_Source\PSoC4/isr_2.c **** 
  35:.\Generated_Source\PSoC4/isr_2.c **** extern cyisraddress CyRamVectors[CYINT_IRQ_BASE + CY_NUM_INTERRUPTS];
  36:.\Generated_Source\PSoC4/isr_2.c **** 
  37:.\Generated_Source\PSoC4/isr_2.c **** /* Declared in startup, used to set unused interrupts to. */
  38:.\Generated_Source\PSoC4/isr_2.c **** CY_ISR_PROTO(IntDefaultHandler);
  39:.\Generated_Source\PSoC4/isr_2.c **** 
  40:.\Generated_Source\PSoC4/isr_2.c **** 
  41:.\Generated_Source\PSoC4/isr_2.c **** /*******************************************************************************
  42:.\Generated_Source\PSoC4/isr_2.c **** * Function Name: isr_2_Start
  43:.\Generated_Source\PSoC4/isr_2.c **** ********************************************************************************
  44:.\Generated_Source\PSoC4/isr_2.c **** *
  45:.\Generated_Source\PSoC4/isr_2.c **** * Summary:
  46:.\Generated_Source\PSoC4/isr_2.c **** *  Set up the interrupt and enable it. This function disables the interrupt, 
  47:.\Generated_Source\PSoC4/isr_2.c **** *  sets the default interrupt vector, sets the priority from the value in the
  48:.\Generated_Source\PSoC4/isr_2.c **** *  Design Wide Resources Interrupt Editor, then enables the interrupt to the 
  49:.\Generated_Source\PSoC4/isr_2.c **** *  interrupt controller.
  50:.\Generated_Source\PSoC4/isr_2.c **** *
  51:.\Generated_Source\PSoC4/isr_2.c **** * Parameters:  
  52:.\Generated_Source\PSoC4/isr_2.c **** *   None
  53:.\Generated_Source\PSoC4/isr_2.c **** *
  54:.\Generated_Source\PSoC4/isr_2.c **** * Return:
  55:.\Generated_Source\PSoC4/isr_2.c **** *   None
  56:.\Generated_Source\PSoC4/isr_2.c **** *
  57:.\Generated_Source\PSoC4/isr_2.c **** *******************************************************************************/
  58:.\Generated_Source\PSoC4/isr_2.c **** void isr_2_Start(void)
  59:.\Generated_Source\PSoC4/isr_2.c **** {
  60:.\Generated_Source\PSoC4/isr_2.c ****     /* For all we know the interrupt is active. */
  61:.\Generated_Source\PSoC4/isr_2.c ****     isr_2_Disable();
  62:.\Generated_Source\PSoC4/isr_2.c **** 
  63:.\Generated_Source\PSoC4/isr_2.c ****     /* Set the ISR to point to the isr_2 Interrupt. */
  64:.\Generated_Source\PSoC4/isr_2.c ****     isr_2_SetVector(&isr_2_Interrupt);
  65:.\Generated_Source\PSoC4/isr_2.c **** 
  66:.\Generated_Source\PSoC4/isr_2.c ****     /* Set the priority. */
  67:.\Generated_Source\PSoC4/isr_2.c ****     isr_2_SetPriority((uint8)isr_2_INTC_PRIOR_NUMBER);
  68:.\Generated_Source\PSoC4/isr_2.c **** 
  69:.\Generated_Source\PSoC4/isr_2.c ****     /* Enable it. */
  70:.\Generated_Source\PSoC4/isr_2.c ****     isr_2_Enable();
  71:.\Generated_Source\PSoC4/isr_2.c **** }
  72:.\Generated_Source\PSoC4/isr_2.c **** 
  73:.\Generated_Source\PSoC4/isr_2.c **** 
  74:.\Generated_Source\PSoC4/isr_2.c **** /*******************************************************************************
  75:.\Generated_Source\PSoC4/isr_2.c **** * Function Name: isr_2_StartEx
  76:.\Generated_Source\PSoC4/isr_2.c **** ********************************************************************************
  77:.\Generated_Source\PSoC4/isr_2.c **** *
  78:.\Generated_Source\PSoC4/isr_2.c **** * Summary:
  79:.\Generated_Source\PSoC4/isr_2.c **** *  Sets up the interrupt and enables it. This function disables the interrupt,
  80:.\Generated_Source\PSoC4/isr_2.c **** *  sets the interrupt vector based on the address passed in, sets the priority 
  81:.\Generated_Source\PSoC4/isr_2.c **** *  from the value in the Design Wide Resources Interrupt Editor, then enables 
  82:.\Generated_Source\PSoC4/isr_2.c **** *  the interrupt to the interrupt controller.
  83:.\Generated_Source\PSoC4/isr_2.c **** *  
  84:.\Generated_Source\PSoC4/isr_2.c **** *  When defining ISR functions, the CY_ISR and CY_ISR_PROTO macros should be 
  85:.\Generated_Source\PSoC4/isr_2.c **** *  used to provide consistent definition across compilers:
  86:.\Generated_Source\PSoC4/isr_2.c **** *  
  87:.\Generated_Source\PSoC4/isr_2.c **** *  Function definition example:
  88:.\Generated_Source\PSoC4/isr_2.c **** *   CY_ISR(MyISR)
  89:.\Generated_Source\PSoC4/isr_2.c **** *   {
ARM GAS  C:\Users\sst5281\AppData\Local\Temp\cc7UPhI8.s 			page 3


  90:.\Generated_Source\PSoC4/isr_2.c **** *   }
  91:.\Generated_Source\PSoC4/isr_2.c **** *   Function prototype example:
  92:.\Generated_Source\PSoC4/isr_2.c **** *   CY_ISR_PROTO(MyISR);
  93:.\Generated_Source\PSoC4/isr_2.c **** *
  94:.\Generated_Source\PSoC4/isr_2.c **** * Parameters:  
  95:.\Generated_Source\PSoC4/isr_2.c **** *   address: Address of the ISR to set in the interrupt vector table.
  96:.\Generated_Source\PSoC4/isr_2.c **** *
  97:.\Generated_Source\PSoC4/isr_2.c **** * Return:
  98:.\Generated_Source\PSoC4/isr_2.c **** *   None
  99:.\Generated_Source\PSoC4/isr_2.c **** *
 100:.\Generated_Source\PSoC4/isr_2.c **** *******************************************************************************/
 101:.\Generated_Source\PSoC4/isr_2.c **** void isr_2_StartEx(cyisraddress address)
 102:.\Generated_Source\PSoC4/isr_2.c **** {
 103:.\Generated_Source\PSoC4/isr_2.c ****     /* For all we know the interrupt is active. */
 104:.\Generated_Source\PSoC4/isr_2.c ****     isr_2_Disable();
 105:.\Generated_Source\PSoC4/isr_2.c **** 
 106:.\Generated_Source\PSoC4/isr_2.c ****     /* Set the ISR to point to the isr_2 Interrupt. */
 107:.\Generated_Source\PSoC4/isr_2.c ****     isr_2_SetVector(address);
 108:.\Generated_Source\PSoC4/isr_2.c **** 
 109:.\Generated_Source\PSoC4/isr_2.c ****     /* Set the priority. */
 110:.\Generated_Source\PSoC4/isr_2.c ****     isr_2_SetPriority((uint8)isr_2_INTC_PRIOR_NUMBER);
 111:.\Generated_Source\PSoC4/isr_2.c **** 
 112:.\Generated_Source\PSoC4/isr_2.c ****     /* Enable it. */
 113:.\Generated_Source\PSoC4/isr_2.c ****     isr_2_Enable();
 114:.\Generated_Source\PSoC4/isr_2.c **** }
 115:.\Generated_Source\PSoC4/isr_2.c **** 
 116:.\Generated_Source\PSoC4/isr_2.c **** 
 117:.\Generated_Source\PSoC4/isr_2.c **** /*******************************************************************************
 118:.\Generated_Source\PSoC4/isr_2.c **** * Function Name: isr_2_Stop
 119:.\Generated_Source\PSoC4/isr_2.c **** ********************************************************************************
 120:.\Generated_Source\PSoC4/isr_2.c **** *
 121:.\Generated_Source\PSoC4/isr_2.c **** * Summary:
 122:.\Generated_Source\PSoC4/isr_2.c **** *   Disables and removes the interrupt.
 123:.\Generated_Source\PSoC4/isr_2.c **** *
 124:.\Generated_Source\PSoC4/isr_2.c **** * Parameters:  
 125:.\Generated_Source\PSoC4/isr_2.c **** *   None
 126:.\Generated_Source\PSoC4/isr_2.c **** *
 127:.\Generated_Source\PSoC4/isr_2.c **** * Return:
 128:.\Generated_Source\PSoC4/isr_2.c **** *   None
 129:.\Generated_Source\PSoC4/isr_2.c **** *
 130:.\Generated_Source\PSoC4/isr_2.c **** *******************************************************************************/
 131:.\Generated_Source\PSoC4/isr_2.c **** void isr_2_Stop(void)
 132:.\Generated_Source\PSoC4/isr_2.c **** {
 133:.\Generated_Source\PSoC4/isr_2.c ****     /* Disable this interrupt. */
 134:.\Generated_Source\PSoC4/isr_2.c ****     isr_2_Disable();
 135:.\Generated_Source\PSoC4/isr_2.c **** 
 136:.\Generated_Source\PSoC4/isr_2.c ****     /* Set the ISR to point to the passive one. */
 137:.\Generated_Source\PSoC4/isr_2.c ****     isr_2_SetVector(&IntDefaultHandler);
 138:.\Generated_Source\PSoC4/isr_2.c **** }
 139:.\Generated_Source\PSoC4/isr_2.c **** 
 140:.\Generated_Source\PSoC4/isr_2.c **** 
 141:.\Generated_Source\PSoC4/isr_2.c **** /*******************************************************************************
 142:.\Generated_Source\PSoC4/isr_2.c **** * Function Name: isr_2_Interrupt
 143:.\Generated_Source\PSoC4/isr_2.c **** ********************************************************************************
 144:.\Generated_Source\PSoC4/isr_2.c **** *
 145:.\Generated_Source\PSoC4/isr_2.c **** * Summary:
 146:.\Generated_Source\PSoC4/isr_2.c **** *   The default Interrupt Service Routine for isr_2.
ARM GAS  C:\Users\sst5281\AppData\Local\Temp\cc7UPhI8.s 			page 4


 147:.\Generated_Source\PSoC4/isr_2.c **** *
 148:.\Generated_Source\PSoC4/isr_2.c **** *   Add custom code between the START and END comments to keep the next version
 149:.\Generated_Source\PSoC4/isr_2.c **** *   of this file from over-writing your code.
 150:.\Generated_Source\PSoC4/isr_2.c **** *
 151:.\Generated_Source\PSoC4/isr_2.c **** *   Note You may use either the default ISR by using this API, or you may define
 152:.\Generated_Source\PSoC4/isr_2.c **** *   your own separate ISR through ISR_StartEx().
 153:.\Generated_Source\PSoC4/isr_2.c **** *
 154:.\Generated_Source\PSoC4/isr_2.c **** * Parameters:  
 155:.\Generated_Source\PSoC4/isr_2.c **** *   None
 156:.\Generated_Source\PSoC4/isr_2.c **** *
 157:.\Generated_Source\PSoC4/isr_2.c **** * Return:
 158:.\Generated_Source\PSoC4/isr_2.c **** *   None
 159:.\Generated_Source\PSoC4/isr_2.c **** *
 160:.\Generated_Source\PSoC4/isr_2.c **** *******************************************************************************/
 161:.\Generated_Source\PSoC4/isr_2.c **** CY_ISR(isr_2_Interrupt)
 162:.\Generated_Source\PSoC4/isr_2.c **** {
  26              		.loc 1 162 0
  27              		.cfi_startproc
  28 0000 08B5     		push	{r3, lr}
  29              		.cfi_def_cfa_offset 8
  30              		.cfi_offset 3, -8
  31              		.cfi_offset 14, -4
 163:.\Generated_Source\PSoC4/isr_2.c ****     #ifdef isr_2_INTERRUPT_INTERRUPT_CALLBACK
 164:.\Generated_Source\PSoC4/isr_2.c ****         isr_2_Interrupt_InterruptCallback();
 165:.\Generated_Source\PSoC4/isr_2.c ****     #endif /* isr_2_INTERRUPT_INTERRUPT_CALLBACK */ 
 166:.\Generated_Source\PSoC4/isr_2.c **** 
 167:.\Generated_Source\PSoC4/isr_2.c ****     /*  Place your Interrupt code here. */
 168:.\Generated_Source\PSoC4/isr_2.c ****     /* `#START isr_2_Interrupt` */
 169:.\Generated_Source\PSoC4/isr_2.c ****     tempCompare = PWM_1_ReadCompare();
  32              		.loc 1 169 0
  33 0002 FFF7FEFF 		bl	PWM_1_ReadCompare
  34              	.LVL0:
  35 0006 0B4B     		ldr	r3, .L4
  36 0008 1860     		str	r0, [r3]
 170:.\Generated_Source\PSoC4/isr_2.c ****     if (tempCompare== 100) tempCompare=0;
  37              		.loc 1 170 0
  38 000a 6428     		cmp	r0, #100
  39 000c 01D1     		bne	.L2
  40              		.loc 1 170 0 is_stmt 0 discriminator 1
  41 000e 0022     		mov	r2, #0
  42 0010 1A60     		str	r2, [r3]
  43              	.L2:
 171:.\Generated_Source\PSoC4/isr_2.c ****     
 172:.\Generated_Source\PSoC4/isr_2.c ****     if( (count_isr2%2)==0){
  44              		.loc 1 172 0 is_stmt 1
  45 0012 084B     		ldr	r3, .L4
  46 0014 1B79     		ldrb	r3, [r3, #4]
  47 0016 DB07     		lsl	r3, r3, #31
  48 0018 04D4     		bmi	.L3
 173:.\Generated_Source\PSoC4/isr_2.c ****         PWM_1_WriteCompare(tempCompare+1);
  49              		.loc 1 173 0
  50 001a 064B     		ldr	r3, .L4
  51 001c 1868     		ldr	r0, [r3]
  52 001e 0130     		add	r0, r0, #1
  53 0020 FFF7FEFF 		bl	PWM_1_WriteCompare
  54              	.LVL1:
  55              	.L3:
ARM GAS  C:\Users\sst5281\AppData\Local\Temp\cc7UPhI8.s 			page 5


 174:.\Generated_Source\PSoC4/isr_2.c ****     }
 175:.\Generated_Source\PSoC4/isr_2.c ****     count_isr2++;
  56              		.loc 1 175 0
  57 0024 034A     		ldr	r2, .L4
  58 0026 1379     		ldrb	r3, [r2, #4]
  59 0028 0133     		add	r3, r3, #1
  60 002a 1371     		strb	r3, [r2, #4]
 176:.\Generated_Source\PSoC4/isr_2.c ****     
 177:.\Generated_Source\PSoC4/isr_2.c ****     PWM_1_ClearInterrupt(PWM_1_INTR_MASK_TC);
  61              		.loc 1 177 0
  62 002c 0120     		mov	r0, #1
  63 002e FFF7FEFF 		bl	PWM_1_ClearInterrupt
  64              	.LVL2:
 178:.\Generated_Source\PSoC4/isr_2.c ****     /* `#END` */
 179:.\Generated_Source\PSoC4/isr_2.c **** }
  65              		.loc 1 179 0
  66              		@ sp needed
  67 0032 08BD     		pop	{r3, pc}
  68              	.L5:
  69              		.align	2
  70              	.L4:
  71 0034 00000000 		.word	.LANCHOR0
  72              		.cfi_endproc
  73              	.LFE5:
  74              		.size	isr_2_Interrupt, .-isr_2_Interrupt
  75              		.section	.text.isr_2_SetVector,"ax",%progbits
  76              		.align	2
  77              		.global	isr_2_SetVector
  78              		.code	16
  79              		.thumb_func
  80              		.type	isr_2_SetVector, %function
  81              	isr_2_SetVector:
  82              	.LFB6:
 180:.\Generated_Source\PSoC4/isr_2.c **** 
 181:.\Generated_Source\PSoC4/isr_2.c **** 
 182:.\Generated_Source\PSoC4/isr_2.c **** /*******************************************************************************
 183:.\Generated_Source\PSoC4/isr_2.c **** * Function Name: isr_2_SetVector
 184:.\Generated_Source\PSoC4/isr_2.c **** ********************************************************************************
 185:.\Generated_Source\PSoC4/isr_2.c **** *
 186:.\Generated_Source\PSoC4/isr_2.c **** * Summary:
 187:.\Generated_Source\PSoC4/isr_2.c **** *   Change the ISR vector for the Interrupt. Note calling isr_2_Start
 188:.\Generated_Source\PSoC4/isr_2.c **** *   will override any effect this method would have had. To set the vector 
 189:.\Generated_Source\PSoC4/isr_2.c **** *   before the component has been started use isr_2_StartEx instead.
 190:.\Generated_Source\PSoC4/isr_2.c **** * 
 191:.\Generated_Source\PSoC4/isr_2.c **** *   When defining ISR functions, the CY_ISR and CY_ISR_PROTO macros should be 
 192:.\Generated_Source\PSoC4/isr_2.c **** *   used to provide consistent definition across compilers:
 193:.\Generated_Source\PSoC4/isr_2.c **** *
 194:.\Generated_Source\PSoC4/isr_2.c **** *   Function definition example:
 195:.\Generated_Source\PSoC4/isr_2.c **** *   CY_ISR(MyISR)
 196:.\Generated_Source\PSoC4/isr_2.c **** *   {
 197:.\Generated_Source\PSoC4/isr_2.c **** *   }
 198:.\Generated_Source\PSoC4/isr_2.c **** *
 199:.\Generated_Source\PSoC4/isr_2.c **** *   Function prototype example:
 200:.\Generated_Source\PSoC4/isr_2.c **** *     CY_ISR_PROTO(MyISR);
 201:.\Generated_Source\PSoC4/isr_2.c **** *
 202:.\Generated_Source\PSoC4/isr_2.c **** * Parameters:
 203:.\Generated_Source\PSoC4/isr_2.c **** *   address: Address of the ISR to set in the interrupt vector table.
ARM GAS  C:\Users\sst5281\AppData\Local\Temp\cc7UPhI8.s 			page 6


 204:.\Generated_Source\PSoC4/isr_2.c **** *
 205:.\Generated_Source\PSoC4/isr_2.c **** * Return:
 206:.\Generated_Source\PSoC4/isr_2.c **** *   None
 207:.\Generated_Source\PSoC4/isr_2.c **** *
 208:.\Generated_Source\PSoC4/isr_2.c **** *******************************************************************************/
 209:.\Generated_Source\PSoC4/isr_2.c **** void isr_2_SetVector(cyisraddress address)
 210:.\Generated_Source\PSoC4/isr_2.c **** {
  83              		.loc 1 210 0
  84              		.cfi_startproc
  85              	.LVL3:
 211:.\Generated_Source\PSoC4/isr_2.c ****     CyRamVectors[CYINT_IRQ_BASE + isr_2__INTC_NUMBER] = address;
  86              		.loc 1 211 0
  87 0000 8423     		mov	r3, #132
  88 0002 014A     		ldr	r2, .L7
  89 0004 D050     		str	r0, [r2, r3]
 212:.\Generated_Source\PSoC4/isr_2.c **** }
  90              		.loc 1 212 0
  91              		@ sp needed
  92 0006 7047     		bx	lr
  93              	.L8:
  94              		.align	2
  95              	.L7:
  96 0008 00000000 		.word	CyRamVectors
  97              		.cfi_endproc
  98              	.LFE6:
  99              		.size	isr_2_SetVector, .-isr_2_SetVector
 100              		.section	.text.isr_2_GetVector,"ax",%progbits
 101              		.align	2
 102              		.global	isr_2_GetVector
 103              		.code	16
 104              		.thumb_func
 105              		.type	isr_2_GetVector, %function
 106              	isr_2_GetVector:
 107              	.LFB7:
 213:.\Generated_Source\PSoC4/isr_2.c **** 
 214:.\Generated_Source\PSoC4/isr_2.c **** 
 215:.\Generated_Source\PSoC4/isr_2.c **** /*******************************************************************************
 216:.\Generated_Source\PSoC4/isr_2.c **** * Function Name: isr_2_GetVector
 217:.\Generated_Source\PSoC4/isr_2.c **** ********************************************************************************
 218:.\Generated_Source\PSoC4/isr_2.c **** *
 219:.\Generated_Source\PSoC4/isr_2.c **** * Summary:
 220:.\Generated_Source\PSoC4/isr_2.c **** *   Gets the "address" of the current ISR vector for the Interrupt.
 221:.\Generated_Source\PSoC4/isr_2.c **** *
 222:.\Generated_Source\PSoC4/isr_2.c **** * Parameters:
 223:.\Generated_Source\PSoC4/isr_2.c **** *   None
 224:.\Generated_Source\PSoC4/isr_2.c **** *
 225:.\Generated_Source\PSoC4/isr_2.c **** * Return:
 226:.\Generated_Source\PSoC4/isr_2.c **** *   Address of the ISR in the interrupt vector table.
 227:.\Generated_Source\PSoC4/isr_2.c **** *
 228:.\Generated_Source\PSoC4/isr_2.c **** *******************************************************************************/
 229:.\Generated_Source\PSoC4/isr_2.c **** cyisraddress isr_2_GetVector(void)
 230:.\Generated_Source\PSoC4/isr_2.c **** {
 108              		.loc 1 230 0
 109              		.cfi_startproc
 231:.\Generated_Source\PSoC4/isr_2.c ****     return CyRamVectors[CYINT_IRQ_BASE + isr_2__INTC_NUMBER];
 110              		.loc 1 231 0
 111 0000 8423     		mov	r3, #132
ARM GAS  C:\Users\sst5281\AppData\Local\Temp\cc7UPhI8.s 			page 7


 112 0002 014A     		ldr	r2, .L10
 113 0004 D058     		ldr	r0, [r2, r3]
 232:.\Generated_Source\PSoC4/isr_2.c **** }
 114              		.loc 1 232 0
 115              		@ sp needed
 116 0006 7047     		bx	lr
 117              	.L11:
 118              		.align	2
 119              	.L10:
 120 0008 00000000 		.word	CyRamVectors
 121              		.cfi_endproc
 122              	.LFE7:
 123              		.size	isr_2_GetVector, .-isr_2_GetVector
 124              		.section	.text.isr_2_SetPriority,"ax",%progbits
 125              		.align	2
 126              		.global	isr_2_SetPriority
 127              		.code	16
 128              		.thumb_func
 129              		.type	isr_2_SetPriority, %function
 130              	isr_2_SetPriority:
 131              	.LFB8:
 233:.\Generated_Source\PSoC4/isr_2.c **** 
 234:.\Generated_Source\PSoC4/isr_2.c **** 
 235:.\Generated_Source\PSoC4/isr_2.c **** /*******************************************************************************
 236:.\Generated_Source\PSoC4/isr_2.c **** * Function Name: isr_2_SetPriority
 237:.\Generated_Source\PSoC4/isr_2.c **** ********************************************************************************
 238:.\Generated_Source\PSoC4/isr_2.c **** *
 239:.\Generated_Source\PSoC4/isr_2.c **** * Summary:
 240:.\Generated_Source\PSoC4/isr_2.c **** *   Sets the Priority of the Interrupt. 
 241:.\Generated_Source\PSoC4/isr_2.c **** *
 242:.\Generated_Source\PSoC4/isr_2.c **** *   Note calling isr_2_Start or isr_2_StartEx will 
 243:.\Generated_Source\PSoC4/isr_2.c **** *   override any effect this API would have had. This API should only be called
 244:.\Generated_Source\PSoC4/isr_2.c **** *   after isr_2_Start or isr_2_StartEx has been called. 
 245:.\Generated_Source\PSoC4/isr_2.c **** *   To set the initial priority for the component, use the Design-Wide Resources
 246:.\Generated_Source\PSoC4/isr_2.c **** *   Interrupt Editor.
 247:.\Generated_Source\PSoC4/isr_2.c **** *
 248:.\Generated_Source\PSoC4/isr_2.c **** *   Note This API has no effect on Non-maskable interrupt NMI).
 249:.\Generated_Source\PSoC4/isr_2.c **** *
 250:.\Generated_Source\PSoC4/isr_2.c **** * Parameters:
 251:.\Generated_Source\PSoC4/isr_2.c **** *   priority: Priority of the interrupt, 0 being the highest priority
 252:.\Generated_Source\PSoC4/isr_2.c **** *             PSoC 3 and PSoC 5LP: Priority is from 0 to 7.
 253:.\Generated_Source\PSoC4/isr_2.c **** *             PSoC 4: Priority is from 0 to 3.
 254:.\Generated_Source\PSoC4/isr_2.c **** *
 255:.\Generated_Source\PSoC4/isr_2.c **** * Return:
 256:.\Generated_Source\PSoC4/isr_2.c **** *   None
 257:.\Generated_Source\PSoC4/isr_2.c **** *
 258:.\Generated_Source\PSoC4/isr_2.c **** *******************************************************************************/
 259:.\Generated_Source\PSoC4/isr_2.c **** void isr_2_SetPriority(uint8 priority)
 260:.\Generated_Source\PSoC4/isr_2.c **** {
 132              		.loc 1 260 0
 133              		.cfi_startproc
 134              	.LVL4:
 135 0000 10B5     		push	{r4, lr}
 136              		.cfi_def_cfa_offset 8
 137              		.cfi_offset 4, -8
 138              		.cfi_offset 14, -4
 139 0002 041C     		mov	r4, r0
ARM GAS  C:\Users\sst5281\AppData\Local\Temp\cc7UPhI8.s 			page 8


 140              	.LVL5:
 261:.\Generated_Source\PSoC4/isr_2.c **** 	uint8 interruptState;
 262:.\Generated_Source\PSoC4/isr_2.c ****     uint32 priorityOffset = ((isr_2__INTC_NUMBER % 4u) * 8u) + 6u;
 263:.\Generated_Source\PSoC4/isr_2.c ****     
 264:.\Generated_Source\PSoC4/isr_2.c **** 	interruptState = CyEnterCriticalSection();
 141              		.loc 1 264 0
 142 0004 FFF7FEFF 		bl	CyEnterCriticalSection
 143              	.LVL6:
 265:.\Generated_Source\PSoC4/isr_2.c ****     *isr_2_INTC_PRIOR = (*isr_2_INTC_PRIOR & (uint32)(~isr_2__INTC_PRIOR_MASK)) |
 144              		.loc 1 265 0
 145 0008 044A     		ldr	r2, .L13
 146 000a 1168     		ldr	r1, [r2]
 147 000c 044B     		ldr	r3, .L13+4
 148 000e 0B40     		and	r3, r1
 266:.\Generated_Source\PSoC4/isr_2.c ****                                     ((uint32)priority << priorityOffset);
 149              		.loc 1 266 0
 150 0010 A403     		lsl	r4, r4, #14
 265:.\Generated_Source\PSoC4/isr_2.c ****     *isr_2_INTC_PRIOR = (*isr_2_INTC_PRIOR & (uint32)(~isr_2__INTC_PRIOR_MASK)) |
 151              		.loc 1 265 0
 152 0012 1C43     		orr	r4, r3
 153 0014 1460     		str	r4, [r2]
 267:.\Generated_Source\PSoC4/isr_2.c **** 	CyExitCriticalSection(interruptState);
 154              		.loc 1 267 0
 155 0016 FFF7FEFF 		bl	CyExitCriticalSection
 156              	.LVL7:
 268:.\Generated_Source\PSoC4/isr_2.c **** }
 157              		.loc 1 268 0
 158              		@ sp needed
 159 001a 10BD     		pop	{r4, pc}
 160              	.L14:
 161              		.align	2
 162              	.L13:
 163 001c 10E400E0 		.word	-536812528
 164 0020 FF3FFFFF 		.word	-49153
 165              		.cfi_endproc
 166              	.LFE8:
 167              		.size	isr_2_SetPriority, .-isr_2_SetPriority
 168              		.section	.text.isr_2_GetPriority,"ax",%progbits
 169              		.align	2
 170              		.global	isr_2_GetPriority
 171              		.code	16
 172              		.thumb_func
 173              		.type	isr_2_GetPriority, %function
 174              	isr_2_GetPriority:
 175              	.LFB9:
 269:.\Generated_Source\PSoC4/isr_2.c **** 
 270:.\Generated_Source\PSoC4/isr_2.c **** 
 271:.\Generated_Source\PSoC4/isr_2.c **** /*******************************************************************************
 272:.\Generated_Source\PSoC4/isr_2.c **** * Function Name: isr_2_GetPriority
 273:.\Generated_Source\PSoC4/isr_2.c **** ********************************************************************************
 274:.\Generated_Source\PSoC4/isr_2.c **** *
 275:.\Generated_Source\PSoC4/isr_2.c **** * Summary:
 276:.\Generated_Source\PSoC4/isr_2.c **** *   Gets the Priority of the Interrupt.
 277:.\Generated_Source\PSoC4/isr_2.c **** *
 278:.\Generated_Source\PSoC4/isr_2.c **** * Parameters:
 279:.\Generated_Source\PSoC4/isr_2.c **** *   None
 280:.\Generated_Source\PSoC4/isr_2.c **** *
ARM GAS  C:\Users\sst5281\AppData\Local\Temp\cc7UPhI8.s 			page 9


 281:.\Generated_Source\PSoC4/isr_2.c **** * Return:
 282:.\Generated_Source\PSoC4/isr_2.c **** *   Priority of the interrupt, 0 being the highest priority
 283:.\Generated_Source\PSoC4/isr_2.c **** *    PSoC 3 and PSoC 5LP: Priority is from 0 to 7.
 284:.\Generated_Source\PSoC4/isr_2.c **** *    PSoC 4: Priority is from 0 to 3.
 285:.\Generated_Source\PSoC4/isr_2.c **** *
 286:.\Generated_Source\PSoC4/isr_2.c **** *******************************************************************************/
 287:.\Generated_Source\PSoC4/isr_2.c **** uint8 isr_2_GetPriority(void)
 288:.\Generated_Source\PSoC4/isr_2.c **** {
 176              		.loc 1 288 0
 177              		.cfi_startproc
 178              	.LVL8:
 289:.\Generated_Source\PSoC4/isr_2.c ****     uint32 priority;
 290:.\Generated_Source\PSoC4/isr_2.c **** 	uint32 priorityOffset = ((isr_2__INTC_NUMBER % 4u) * 8u) + 6u;
 291:.\Generated_Source\PSoC4/isr_2.c **** 
 292:.\Generated_Source\PSoC4/isr_2.c ****     priority = (*isr_2_INTC_PRIOR & isr_2__INTC_PRIOR_MASK) >> priorityOffset;
 179              		.loc 1 292 0
 180 0000 024B     		ldr	r3, .L16
 181 0002 1868     		ldr	r0, [r3]
 182 0004 0004     		lsl	r0, r0, #16
 183              	.LVL9:
 293:.\Generated_Source\PSoC4/isr_2.c **** 
 294:.\Generated_Source\PSoC4/isr_2.c ****     return (uint8)priority;
 184              		.loc 1 294 0
 185 0006 800F     		lsr	r0, r0, #30
 186              	.LVL10:
 295:.\Generated_Source\PSoC4/isr_2.c **** }
 187              		.loc 1 295 0
 188              		@ sp needed
 189 0008 7047     		bx	lr
 190              	.L17:
 191 000a C046     		.align	2
 192              	.L16:
 193 000c 10E400E0 		.word	-536812528
 194              		.cfi_endproc
 195              	.LFE9:
 196              		.size	isr_2_GetPriority, .-isr_2_GetPriority
 197              		.section	.text.isr_2_Enable,"ax",%progbits
 198              		.align	2
 199              		.global	isr_2_Enable
 200              		.code	16
 201              		.thumb_func
 202              		.type	isr_2_Enable, %function
 203              	isr_2_Enable:
 204              	.LFB10:
 296:.\Generated_Source\PSoC4/isr_2.c **** 
 297:.\Generated_Source\PSoC4/isr_2.c **** 
 298:.\Generated_Source\PSoC4/isr_2.c **** /*******************************************************************************
 299:.\Generated_Source\PSoC4/isr_2.c **** * Function Name: isr_2_Enable
 300:.\Generated_Source\PSoC4/isr_2.c **** ********************************************************************************
 301:.\Generated_Source\PSoC4/isr_2.c **** *
 302:.\Generated_Source\PSoC4/isr_2.c **** * Summary:
 303:.\Generated_Source\PSoC4/isr_2.c **** *   Enables the interrupt to the interrupt controller. Do not call this function
 304:.\Generated_Source\PSoC4/isr_2.c **** *   unless ISR_Start() has been called or the functionality of the ISR_Start() 
 305:.\Generated_Source\PSoC4/isr_2.c **** *   function, which sets the vector and the priority, has been called.
 306:.\Generated_Source\PSoC4/isr_2.c **** *
 307:.\Generated_Source\PSoC4/isr_2.c **** * Parameters:
 308:.\Generated_Source\PSoC4/isr_2.c **** *   None
ARM GAS  C:\Users\sst5281\AppData\Local\Temp\cc7UPhI8.s 			page 10


 309:.\Generated_Source\PSoC4/isr_2.c **** *
 310:.\Generated_Source\PSoC4/isr_2.c **** * Return:
 311:.\Generated_Source\PSoC4/isr_2.c **** *   None
 312:.\Generated_Source\PSoC4/isr_2.c **** *
 313:.\Generated_Source\PSoC4/isr_2.c **** *******************************************************************************/
 314:.\Generated_Source\PSoC4/isr_2.c **** void isr_2_Enable(void)
 315:.\Generated_Source\PSoC4/isr_2.c **** {
 205              		.loc 1 315 0
 206              		.cfi_startproc
 316:.\Generated_Source\PSoC4/isr_2.c ****     /* Enable the general interrupt. */
 317:.\Generated_Source\PSoC4/isr_2.c ****     *isr_2_INTC_SET_EN = isr_2__INTC_MASK;
 207              		.loc 1 317 0
 208 0000 8022     		mov	r2, #128
 209 0002 9202     		lsl	r2, r2, #10
 210 0004 014B     		ldr	r3, .L19
 211 0006 1A60     		str	r2, [r3]
 318:.\Generated_Source\PSoC4/isr_2.c **** }
 212              		.loc 1 318 0
 213              		@ sp needed
 214 0008 7047     		bx	lr
 215              	.L20:
 216 000a C046     		.align	2
 217              	.L19:
 218 000c 00E100E0 		.word	-536813312
 219              		.cfi_endproc
 220              	.LFE10:
 221              		.size	isr_2_Enable, .-isr_2_Enable
 222              		.section	.text.isr_2_GetState,"ax",%progbits
 223              		.align	2
 224              		.global	isr_2_GetState
 225              		.code	16
 226              		.thumb_func
 227              		.type	isr_2_GetState, %function
 228              	isr_2_GetState:
 229              	.LFB11:
 319:.\Generated_Source\PSoC4/isr_2.c **** 
 320:.\Generated_Source\PSoC4/isr_2.c **** 
 321:.\Generated_Source\PSoC4/isr_2.c **** /*******************************************************************************
 322:.\Generated_Source\PSoC4/isr_2.c **** * Function Name: isr_2_GetState
 323:.\Generated_Source\PSoC4/isr_2.c **** ********************************************************************************
 324:.\Generated_Source\PSoC4/isr_2.c **** *
 325:.\Generated_Source\PSoC4/isr_2.c **** * Summary:
 326:.\Generated_Source\PSoC4/isr_2.c **** *   Gets the state (enabled, disabled) of the Interrupt.
 327:.\Generated_Source\PSoC4/isr_2.c **** *
 328:.\Generated_Source\PSoC4/isr_2.c **** * Parameters:
 329:.\Generated_Source\PSoC4/isr_2.c **** *   None
 330:.\Generated_Source\PSoC4/isr_2.c **** *
 331:.\Generated_Source\PSoC4/isr_2.c **** * Return:
 332:.\Generated_Source\PSoC4/isr_2.c **** *   1 if enabled, 0 if disabled.
 333:.\Generated_Source\PSoC4/isr_2.c **** *
 334:.\Generated_Source\PSoC4/isr_2.c **** *******************************************************************************/
 335:.\Generated_Source\PSoC4/isr_2.c **** uint8 isr_2_GetState(void)
 336:.\Generated_Source\PSoC4/isr_2.c **** {
 230              		.loc 1 336 0
 231              		.cfi_startproc
 337:.\Generated_Source\PSoC4/isr_2.c ****     /* Get the state of the general interrupt. */
 338:.\Generated_Source\PSoC4/isr_2.c ****     return ((*isr_2_INTC_SET_EN & (uint32)isr_2__INTC_MASK) != 0u) ? 1u:0u;
ARM GAS  C:\Users\sst5281\AppData\Local\Temp\cc7UPhI8.s 			page 11


 232              		.loc 1 338 0
 233 0000 034B     		ldr	r3, .L24
 234 0002 1B68     		ldr	r3, [r3]
 235 0004 9B03     		lsl	r3, r3, #14
 236 0006 01D5     		bpl	.L23
 237 0008 0120     		mov	r0, #1
 238 000a 00E0     		b	.L22
 239              	.L23:
 240 000c 0020     		mov	r0, #0
 241              	.L22:
 339:.\Generated_Source\PSoC4/isr_2.c **** }
 242              		.loc 1 339 0 discriminator 4
 243              		@ sp needed
 244 000e 7047     		bx	lr
 245              	.L25:
 246              		.align	2
 247              	.L24:
 248 0010 00E100E0 		.word	-536813312
 249              		.cfi_endproc
 250              	.LFE11:
 251              		.size	isr_2_GetState, .-isr_2_GetState
 252              		.section	.text.isr_2_Disable,"ax",%progbits
 253              		.align	2
 254              		.global	isr_2_Disable
 255              		.code	16
 256              		.thumb_func
 257              		.type	isr_2_Disable, %function
 258              	isr_2_Disable:
 259              	.LFB12:
 340:.\Generated_Source\PSoC4/isr_2.c **** 
 341:.\Generated_Source\PSoC4/isr_2.c **** 
 342:.\Generated_Source\PSoC4/isr_2.c **** /*******************************************************************************
 343:.\Generated_Source\PSoC4/isr_2.c **** * Function Name: isr_2_Disable
 344:.\Generated_Source\PSoC4/isr_2.c **** ********************************************************************************
 345:.\Generated_Source\PSoC4/isr_2.c **** *
 346:.\Generated_Source\PSoC4/isr_2.c **** * Summary:
 347:.\Generated_Source\PSoC4/isr_2.c **** *   Disables the Interrupt in the interrupt controller.
 348:.\Generated_Source\PSoC4/isr_2.c **** *
 349:.\Generated_Source\PSoC4/isr_2.c **** * Parameters:
 350:.\Generated_Source\PSoC4/isr_2.c **** *   None
 351:.\Generated_Source\PSoC4/isr_2.c **** *
 352:.\Generated_Source\PSoC4/isr_2.c **** * Return:
 353:.\Generated_Source\PSoC4/isr_2.c **** *   None
 354:.\Generated_Source\PSoC4/isr_2.c **** *
 355:.\Generated_Source\PSoC4/isr_2.c **** *******************************************************************************/
 356:.\Generated_Source\PSoC4/isr_2.c **** void isr_2_Disable(void)
 357:.\Generated_Source\PSoC4/isr_2.c **** {
 260              		.loc 1 357 0
 261              		.cfi_startproc
 358:.\Generated_Source\PSoC4/isr_2.c ****     /* Disable the general interrupt. */
 359:.\Generated_Source\PSoC4/isr_2.c ****     *isr_2_INTC_CLR_EN = isr_2__INTC_MASK;
 262              		.loc 1 359 0
 263 0000 8022     		mov	r2, #128
 264 0002 9202     		lsl	r2, r2, #10
 265 0004 014B     		ldr	r3, .L27
 266 0006 1A60     		str	r2, [r3]
 360:.\Generated_Source\PSoC4/isr_2.c **** }
ARM GAS  C:\Users\sst5281\AppData\Local\Temp\cc7UPhI8.s 			page 12


 267              		.loc 1 360 0
 268              		@ sp needed
 269 0008 7047     		bx	lr
 270              	.L28:
 271 000a C046     		.align	2
 272              	.L27:
 273 000c 80E100E0 		.word	-536813184
 274              		.cfi_endproc
 275              	.LFE12:
 276              		.size	isr_2_Disable, .-isr_2_Disable
 277              		.section	.text.isr_2_Start,"ax",%progbits
 278              		.align	2
 279              		.global	isr_2_Start
 280              		.code	16
 281              		.thumb_func
 282              		.type	isr_2_Start, %function
 283              	isr_2_Start:
 284              	.LFB2:
  59:.\Generated_Source\PSoC4/isr_2.c ****     /* For all we know the interrupt is active. */
 285              		.loc 1 59 0
 286              		.cfi_startproc
 287 0000 08B5     		push	{r3, lr}
 288              		.cfi_def_cfa_offset 8
 289              		.cfi_offset 3, -8
 290              		.cfi_offset 14, -4
  61:.\Generated_Source\PSoC4/isr_2.c **** 
 291              		.loc 1 61 0
 292 0002 FFF7FEFF 		bl	isr_2_Disable
 293              	.LVL11:
  64:.\Generated_Source\PSoC4/isr_2.c **** 
 294              		.loc 1 64 0
 295 0006 0448     		ldr	r0, .L30
 296 0008 FFF7FEFF 		bl	isr_2_SetVector
 297              	.LVL12:
  67:.\Generated_Source\PSoC4/isr_2.c **** 
 298              		.loc 1 67 0
 299 000c 0320     		mov	r0, #3
 300 000e FFF7FEFF 		bl	isr_2_SetPriority
 301              	.LVL13:
  70:.\Generated_Source\PSoC4/isr_2.c **** }
 302              		.loc 1 70 0
 303 0012 FFF7FEFF 		bl	isr_2_Enable
 304              	.LVL14:
  71:.\Generated_Source\PSoC4/isr_2.c **** 
 305              		.loc 1 71 0
 306              		@ sp needed
 307 0016 08BD     		pop	{r3, pc}
 308              	.L31:
 309              		.align	2
 310              	.L30:
 311 0018 00000000 		.word	isr_2_Interrupt
 312              		.cfi_endproc
 313              	.LFE2:
 314              		.size	isr_2_Start, .-isr_2_Start
 315              		.section	.text.isr_2_StartEx,"ax",%progbits
 316              		.align	2
 317              		.global	isr_2_StartEx
ARM GAS  C:\Users\sst5281\AppData\Local\Temp\cc7UPhI8.s 			page 13


 318              		.code	16
 319              		.thumb_func
 320              		.type	isr_2_StartEx, %function
 321              	isr_2_StartEx:
 322              	.LFB3:
 102:.\Generated_Source\PSoC4/isr_2.c ****     /* For all we know the interrupt is active. */
 323              		.loc 1 102 0
 324              		.cfi_startproc
 325              	.LVL15:
 326 0000 10B5     		push	{r4, lr}
 327              		.cfi_def_cfa_offset 8
 328              		.cfi_offset 4, -8
 329              		.cfi_offset 14, -4
 330 0002 041C     		mov	r4, r0
 104:.\Generated_Source\PSoC4/isr_2.c **** 
 331              		.loc 1 104 0
 332 0004 FFF7FEFF 		bl	isr_2_Disable
 333              	.LVL16:
 107:.\Generated_Source\PSoC4/isr_2.c **** 
 334              		.loc 1 107 0
 335 0008 201C     		mov	r0, r4
 336 000a FFF7FEFF 		bl	isr_2_SetVector
 337              	.LVL17:
 110:.\Generated_Source\PSoC4/isr_2.c **** 
 338              		.loc 1 110 0
 339 000e 0320     		mov	r0, #3
 340 0010 FFF7FEFF 		bl	isr_2_SetPriority
 341              	.LVL18:
 113:.\Generated_Source\PSoC4/isr_2.c **** }
 342              		.loc 1 113 0
 343 0014 FFF7FEFF 		bl	isr_2_Enable
 344              	.LVL19:
 114:.\Generated_Source\PSoC4/isr_2.c **** 
 345              		.loc 1 114 0
 346              		@ sp needed
 347              	.LVL20:
 348 0018 10BD     		pop	{r4, pc}
 349              		.cfi_endproc
 350              	.LFE3:
 351              		.size	isr_2_StartEx, .-isr_2_StartEx
 352 001a C046     		.section	.text.isr_2_Stop,"ax",%progbits
 353              		.align	2
 354              		.global	isr_2_Stop
 355              		.code	16
 356              		.thumb_func
 357              		.type	isr_2_Stop, %function
 358              	isr_2_Stop:
 359              	.LFB4:
 132:.\Generated_Source\PSoC4/isr_2.c ****     /* Disable this interrupt. */
 360              		.loc 1 132 0
 361              		.cfi_startproc
 362 0000 08B5     		push	{r3, lr}
 363              		.cfi_def_cfa_offset 8
 364              		.cfi_offset 3, -8
 365              		.cfi_offset 14, -4
 134:.\Generated_Source\PSoC4/isr_2.c **** 
 366              		.loc 1 134 0
ARM GAS  C:\Users\sst5281\AppData\Local\Temp\cc7UPhI8.s 			page 14


 367 0002 FFF7FEFF 		bl	isr_2_Disable
 368              	.LVL21:
 137:.\Generated_Source\PSoC4/isr_2.c **** }
 369              		.loc 1 137 0
 370 0006 0248     		ldr	r0, .L34
 371 0008 FFF7FEFF 		bl	isr_2_SetVector
 372              	.LVL22:
 138:.\Generated_Source\PSoC4/isr_2.c **** 
 373              		.loc 1 138 0
 374              		@ sp needed
 375 000c 08BD     		pop	{r3, pc}
 376              	.L35:
 377 000e C046     		.align	2
 378              	.L34:
 379 0010 00000000 		.word	IntDefaultHandler
 380              		.cfi_endproc
 381              	.LFE4:
 382              		.size	isr_2_Stop, .-isr_2_Stop
 383              		.section	.text.isr_2_SetPending,"ax",%progbits
 384              		.align	2
 385              		.global	isr_2_SetPending
 386              		.code	16
 387              		.thumb_func
 388              		.type	isr_2_SetPending, %function
 389              	isr_2_SetPending:
 390              	.LFB13:
 361:.\Generated_Source\PSoC4/isr_2.c **** 
 362:.\Generated_Source\PSoC4/isr_2.c **** 
 363:.\Generated_Source\PSoC4/isr_2.c **** /*******************************************************************************
 364:.\Generated_Source\PSoC4/isr_2.c **** * Function Name: isr_2_SetPending
 365:.\Generated_Source\PSoC4/isr_2.c **** ********************************************************************************
 366:.\Generated_Source\PSoC4/isr_2.c **** *
 367:.\Generated_Source\PSoC4/isr_2.c **** * Summary:
 368:.\Generated_Source\PSoC4/isr_2.c **** *   Causes the Interrupt to enter the pending state, a software method of
 369:.\Generated_Source\PSoC4/isr_2.c **** *   generating the interrupt.
 370:.\Generated_Source\PSoC4/isr_2.c **** *
 371:.\Generated_Source\PSoC4/isr_2.c **** * Parameters:
 372:.\Generated_Source\PSoC4/isr_2.c **** *   None
 373:.\Generated_Source\PSoC4/isr_2.c **** *
 374:.\Generated_Source\PSoC4/isr_2.c **** * Return:
 375:.\Generated_Source\PSoC4/isr_2.c **** *   None
 376:.\Generated_Source\PSoC4/isr_2.c **** *
 377:.\Generated_Source\PSoC4/isr_2.c **** * Side Effects:
 378:.\Generated_Source\PSoC4/isr_2.c **** *   If interrupts are enabled and the interrupt is set up properly, the ISR is
 379:.\Generated_Source\PSoC4/isr_2.c **** *   entered (depending on the priority of this interrupt and other pending 
 380:.\Generated_Source\PSoC4/isr_2.c **** *   interrupts).
 381:.\Generated_Source\PSoC4/isr_2.c **** *
 382:.\Generated_Source\PSoC4/isr_2.c **** *******************************************************************************/
 383:.\Generated_Source\PSoC4/isr_2.c **** void isr_2_SetPending(void)
 384:.\Generated_Source\PSoC4/isr_2.c **** {
 391              		.loc 1 384 0
 392              		.cfi_startproc
 385:.\Generated_Source\PSoC4/isr_2.c ****     *isr_2_INTC_SET_PD = isr_2__INTC_MASK;
 393              		.loc 1 385 0
 394 0000 8022     		mov	r2, #128
 395 0002 9202     		lsl	r2, r2, #10
 396 0004 014B     		ldr	r3, .L37
ARM GAS  C:\Users\sst5281\AppData\Local\Temp\cc7UPhI8.s 			page 15


 397 0006 1A60     		str	r2, [r3]
 386:.\Generated_Source\PSoC4/isr_2.c **** }
 398              		.loc 1 386 0
 399              		@ sp needed
 400 0008 7047     		bx	lr
 401              	.L38:
 402 000a C046     		.align	2
 403              	.L37:
 404 000c 00E200E0 		.word	-536813056
 405              		.cfi_endproc
 406              	.LFE13:
 407              		.size	isr_2_SetPending, .-isr_2_SetPending
 408              		.section	.text.isr_2_ClearPending,"ax",%progbits
 409              		.align	2
 410              		.global	isr_2_ClearPending
 411              		.code	16
 412              		.thumb_func
 413              		.type	isr_2_ClearPending, %function
 414              	isr_2_ClearPending:
 415              	.LFB14:
 387:.\Generated_Source\PSoC4/isr_2.c **** 
 388:.\Generated_Source\PSoC4/isr_2.c **** 
 389:.\Generated_Source\PSoC4/isr_2.c **** /*******************************************************************************
 390:.\Generated_Source\PSoC4/isr_2.c **** * Function Name: isr_2_ClearPending
 391:.\Generated_Source\PSoC4/isr_2.c **** ********************************************************************************
 392:.\Generated_Source\PSoC4/isr_2.c **** *
 393:.\Generated_Source\PSoC4/isr_2.c **** * Summary:
 394:.\Generated_Source\PSoC4/isr_2.c **** *   Clears a pending interrupt in the interrupt controller.
 395:.\Generated_Source\PSoC4/isr_2.c **** *
 396:.\Generated_Source\PSoC4/isr_2.c **** *   Note Some interrupt sources are clear-on-read and require the block 
 397:.\Generated_Source\PSoC4/isr_2.c **** *   interrupt/status register to be read/cleared with the appropriate block API 
 398:.\Generated_Source\PSoC4/isr_2.c **** *   (GPIO, UART, and so on). Otherwise the ISR will continue to remain in 
 399:.\Generated_Source\PSoC4/isr_2.c **** *   pending state even though the interrupt itself is cleared using this API.
 400:.\Generated_Source\PSoC4/isr_2.c **** *
 401:.\Generated_Source\PSoC4/isr_2.c **** * Parameters:
 402:.\Generated_Source\PSoC4/isr_2.c **** *   None
 403:.\Generated_Source\PSoC4/isr_2.c **** *
 404:.\Generated_Source\PSoC4/isr_2.c **** * Return:
 405:.\Generated_Source\PSoC4/isr_2.c **** *   None
 406:.\Generated_Source\PSoC4/isr_2.c **** *
 407:.\Generated_Source\PSoC4/isr_2.c **** *******************************************************************************/
 408:.\Generated_Source\PSoC4/isr_2.c **** void isr_2_ClearPending(void)
 409:.\Generated_Source\PSoC4/isr_2.c **** {
 416              		.loc 1 409 0
 417              		.cfi_startproc
 410:.\Generated_Source\PSoC4/isr_2.c ****     *isr_2_INTC_CLR_PD = isr_2__INTC_MASK;
 418              		.loc 1 410 0
 419 0000 8022     		mov	r2, #128
 420 0002 9202     		lsl	r2, r2, #10
 421 0004 014B     		ldr	r3, .L40
 422 0006 1A60     		str	r2, [r3]
 411:.\Generated_Source\PSoC4/isr_2.c **** }
 423              		.loc 1 411 0
 424              		@ sp needed
 425 0008 7047     		bx	lr
 426              	.L41:
 427 000a C046     		.align	2
ARM GAS  C:\Users\sst5281\AppData\Local\Temp\cc7UPhI8.s 			page 16


 428              	.L40:
 429 000c 80E200E0 		.word	-536812928
 430              		.cfi_endproc
 431              	.LFE14:
 432              		.size	isr_2_ClearPending, .-isr_2_ClearPending
 433              		.global	tempCompare
 434              		.global	count_isr2
 435              		.bss
 436              		.align	2
 437              		.set	.LANCHOR0,. + 0
 438              		.type	tempCompare, %object
 439              		.size	tempCompare, 4
 440              	tempCompare:
 441 0000 00000000 		.space	4
 442              		.type	count_isr2, %object
 443              		.size	count_isr2, 1
 444              	count_isr2:
 445 0004 00       		.space	1
 446 0005 000000   		.text
 447              	.Letext0:
 448              		.file 2 "Generated_Source\\PSoC4/cytypes.h"
 449              		.file 3 "Generated_Source\\PSoC4/PWM_1.h"
 450              		.file 4 "Generated_Source\\PSoC4/CyLib.h"