ARM GAS  C:\Users\sst5281\AppData\Local\Temp\ccrvTqxY.s 			page 1


   1              		.cpu cortex-m0
   2              		.fpu softvfp
   3              		.eabi_attribute 20, 1
   4              		.eabi_attribute 21, 1
   5              		.eabi_attribute 23, 3
   6              		.eabi_attribute 24, 1
   7              		.eabi_attribute 25, 1
   8              		.eabi_attribute 26, 1
   9              		.eabi_attribute 30, 1
  10              		.eabi_attribute 34, 0
  11              		.eabi_attribute 18, 4
  12              		.code	16
  13              		.file	"isr_1.c"
  14              		.text
  15              	.Ltext0:
  16              		.cfi_sections	.debug_frame
  17              		.section	.text.isr_1_Interrupt,"ax",%progbits
  18              		.align	2
  19              		.global	isr_1_Interrupt
  20              		.code	16
  21              		.thumb_func
  22              		.type	isr_1_Interrupt, %function
  23              	isr_1_Interrupt:
  24              	.LFB5:
  25              		.file 1 ".\\Generated_Source\\PSoC4\\isr_1.c"
   1:.\Generated_Source\PSoC4/isr_1.c **** /*******************************************************************************
   2:.\Generated_Source\PSoC4/isr_1.c **** * File Name: isr_1.c  
   3:.\Generated_Source\PSoC4/isr_1.c **** * Version 1.70
   4:.\Generated_Source\PSoC4/isr_1.c **** *
   5:.\Generated_Source\PSoC4/isr_1.c **** *  Description:
   6:.\Generated_Source\PSoC4/isr_1.c **** *   API for controlling the state of an interrupt.
   7:.\Generated_Source\PSoC4/isr_1.c **** *
   8:.\Generated_Source\PSoC4/isr_1.c **** *
   9:.\Generated_Source\PSoC4/isr_1.c **** *  Note:
  10:.\Generated_Source\PSoC4/isr_1.c **** *
  11:.\Generated_Source\PSoC4/isr_1.c **** ********************************************************************************
  12:.\Generated_Source\PSoC4/isr_1.c **** * Copyright 2008-2015, Cypress Semiconductor Corporation.  All rights reserved.
  13:.\Generated_Source\PSoC4/isr_1.c **** * You may use this file only in accordance with the license, terms, conditions, 
  14:.\Generated_Source\PSoC4/isr_1.c **** * disclaimers, and limitations in the end user license agreement accompanying 
  15:.\Generated_Source\PSoC4/isr_1.c **** * the software package with which this file was provided.
  16:.\Generated_Source\PSoC4/isr_1.c **** *******************************************************************************/
  17:.\Generated_Source\PSoC4/isr_1.c **** 
  18:.\Generated_Source\PSoC4/isr_1.c **** 
  19:.\Generated_Source\PSoC4/isr_1.c **** #include <cydevice_trm.h>
  20:.\Generated_Source\PSoC4/isr_1.c **** #include <CyLib.h>
  21:.\Generated_Source\PSoC4/isr_1.c **** #include <isr_1.h>
  22:.\Generated_Source\PSoC4/isr_1.c **** #include "cyapicallbacks.h"
  23:.\Generated_Source\PSoC4/isr_1.c **** 
  24:.\Generated_Source\PSoC4/isr_1.c **** #if !defined(isr_1__REMOVED) /* Check for removal by optimization */
  25:.\Generated_Source\PSoC4/isr_1.c **** 
  26:.\Generated_Source\PSoC4/isr_1.c **** /*******************************************************************************
  27:.\Generated_Source\PSoC4/isr_1.c **** *  Place your includes, defines and code here 
  28:.\Generated_Source\PSoC4/isr_1.c **** ********************************************************************************/
  29:.\Generated_Source\PSoC4/isr_1.c **** /* `#START isr_1_intc` */
  30:.\Generated_Source\PSoC4/isr_1.c **** #include <LED_Blue.h>
  31:.\Generated_Source\PSoC4/isr_1.c **** #include <Pin_1.h>
  32:.\Generated_Source\PSoC4/isr_1.c **** uint16 count = 0;       //ford debugging
ARM GAS  C:\Users\sst5281\AppData\Local\Temp\ccrvTqxY.s 			page 2


  33:.\Generated_Source\PSoC4/isr_1.c **** /* `#END` */
  34:.\Generated_Source\PSoC4/isr_1.c **** 
  35:.\Generated_Source\PSoC4/isr_1.c **** extern cyisraddress CyRamVectors[CYINT_IRQ_BASE + CY_NUM_INTERRUPTS];
  36:.\Generated_Source\PSoC4/isr_1.c **** 
  37:.\Generated_Source\PSoC4/isr_1.c **** /* Declared in startup, used to set unused interrupts to. */
  38:.\Generated_Source\PSoC4/isr_1.c **** CY_ISR_PROTO(IntDefaultHandler);
  39:.\Generated_Source\PSoC4/isr_1.c **** 
  40:.\Generated_Source\PSoC4/isr_1.c **** 
  41:.\Generated_Source\PSoC4/isr_1.c **** /*******************************************************************************
  42:.\Generated_Source\PSoC4/isr_1.c **** * Function Name: isr_1_Start
  43:.\Generated_Source\PSoC4/isr_1.c **** ********************************************************************************
  44:.\Generated_Source\PSoC4/isr_1.c **** *
  45:.\Generated_Source\PSoC4/isr_1.c **** * Summary:
  46:.\Generated_Source\PSoC4/isr_1.c **** *  Set up the interrupt and enable it. This function disables the interrupt, 
  47:.\Generated_Source\PSoC4/isr_1.c **** *  sets the default interrupt vector, sets the priority from the value in the
  48:.\Generated_Source\PSoC4/isr_1.c **** *  Design Wide Resources Interrupt Editor, then enables the interrupt to the 
  49:.\Generated_Source\PSoC4/isr_1.c **** *  interrupt controller.
  50:.\Generated_Source\PSoC4/isr_1.c **** *
  51:.\Generated_Source\PSoC4/isr_1.c **** * Parameters:  
  52:.\Generated_Source\PSoC4/isr_1.c **** *   None
  53:.\Generated_Source\PSoC4/isr_1.c **** *
  54:.\Generated_Source\PSoC4/isr_1.c **** * Return:
  55:.\Generated_Source\PSoC4/isr_1.c **** *   None
  56:.\Generated_Source\PSoC4/isr_1.c **** *
  57:.\Generated_Source\PSoC4/isr_1.c **** *******************************************************************************/
  58:.\Generated_Source\PSoC4/isr_1.c **** void isr_1_Start(void)
  59:.\Generated_Source\PSoC4/isr_1.c **** {
  60:.\Generated_Source\PSoC4/isr_1.c ****     /* For all we know the interrupt is active. */
  61:.\Generated_Source\PSoC4/isr_1.c ****     isr_1_Disable();
  62:.\Generated_Source\PSoC4/isr_1.c **** 
  63:.\Generated_Source\PSoC4/isr_1.c ****     /* Set the ISR to point to the isr_1 Interrupt. */
  64:.\Generated_Source\PSoC4/isr_1.c ****     isr_1_SetVector(&isr_1_Interrupt);
  65:.\Generated_Source\PSoC4/isr_1.c **** 
  66:.\Generated_Source\PSoC4/isr_1.c ****     /* Set the priority. */
  67:.\Generated_Source\PSoC4/isr_1.c ****     isr_1_SetPriority((uint8)isr_1_INTC_PRIOR_NUMBER);
  68:.\Generated_Source\PSoC4/isr_1.c **** 
  69:.\Generated_Source\PSoC4/isr_1.c ****     /* Enable it. */
  70:.\Generated_Source\PSoC4/isr_1.c ****     isr_1_Enable();
  71:.\Generated_Source\PSoC4/isr_1.c **** }
  72:.\Generated_Source\PSoC4/isr_1.c **** 
  73:.\Generated_Source\PSoC4/isr_1.c **** 
  74:.\Generated_Source\PSoC4/isr_1.c **** /*******************************************************************************
  75:.\Generated_Source\PSoC4/isr_1.c **** * Function Name: isr_1_StartEx
  76:.\Generated_Source\PSoC4/isr_1.c **** ********************************************************************************
  77:.\Generated_Source\PSoC4/isr_1.c **** *
  78:.\Generated_Source\PSoC4/isr_1.c **** * Summary:
  79:.\Generated_Source\PSoC4/isr_1.c **** *  Sets up the interrupt and enables it. This function disables the interrupt,
  80:.\Generated_Source\PSoC4/isr_1.c **** *  sets the interrupt vector based on the address passed in, sets the priority 
  81:.\Generated_Source\PSoC4/isr_1.c **** *  from the value in the Design Wide Resources Interrupt Editor, then enables 
  82:.\Generated_Source\PSoC4/isr_1.c **** *  the interrupt to the interrupt controller.
  83:.\Generated_Source\PSoC4/isr_1.c **** *  
  84:.\Generated_Source\PSoC4/isr_1.c **** *  When defining ISR functions, the CY_ISR and CY_ISR_PROTO macros should be 
  85:.\Generated_Source\PSoC4/isr_1.c **** *  used to provide consistent definition across compilers:
  86:.\Generated_Source\PSoC4/isr_1.c **** *  
  87:.\Generated_Source\PSoC4/isr_1.c **** *  Function definition example:
  88:.\Generated_Source\PSoC4/isr_1.c **** *   CY_ISR(MyISR)
  89:.\Generated_Source\PSoC4/isr_1.c **** *   {
ARM GAS  C:\Users\sst5281\AppData\Local\Temp\ccrvTqxY.s 			page 3


  90:.\Generated_Source\PSoC4/isr_1.c **** *   }
  91:.\Generated_Source\PSoC4/isr_1.c **** *   Function prototype example:
  92:.\Generated_Source\PSoC4/isr_1.c **** *   CY_ISR_PROTO(MyISR);
  93:.\Generated_Source\PSoC4/isr_1.c **** *
  94:.\Generated_Source\PSoC4/isr_1.c **** * Parameters:  
  95:.\Generated_Source\PSoC4/isr_1.c **** *   address: Address of the ISR to set in the interrupt vector table.
  96:.\Generated_Source\PSoC4/isr_1.c **** *
  97:.\Generated_Source\PSoC4/isr_1.c **** * Return:
  98:.\Generated_Source\PSoC4/isr_1.c **** *   None
  99:.\Generated_Source\PSoC4/isr_1.c **** *
 100:.\Generated_Source\PSoC4/isr_1.c **** *******************************************************************************/
 101:.\Generated_Source\PSoC4/isr_1.c **** void isr_1_StartEx(cyisraddress address)
 102:.\Generated_Source\PSoC4/isr_1.c **** {
 103:.\Generated_Source\PSoC4/isr_1.c ****     /* For all we know the interrupt is active. */
 104:.\Generated_Source\PSoC4/isr_1.c ****     isr_1_Disable();
 105:.\Generated_Source\PSoC4/isr_1.c **** 
 106:.\Generated_Source\PSoC4/isr_1.c ****     /* Set the ISR to point to the isr_1 Interrupt. */
 107:.\Generated_Source\PSoC4/isr_1.c ****     isr_1_SetVector(address);
 108:.\Generated_Source\PSoC4/isr_1.c **** 
 109:.\Generated_Source\PSoC4/isr_1.c ****     /* Set the priority. */
 110:.\Generated_Source\PSoC4/isr_1.c ****     isr_1_SetPriority((uint8)isr_1_INTC_PRIOR_NUMBER);
 111:.\Generated_Source\PSoC4/isr_1.c **** 
 112:.\Generated_Source\PSoC4/isr_1.c ****     /* Enable it. */
 113:.\Generated_Source\PSoC4/isr_1.c ****     isr_1_Enable();
 114:.\Generated_Source\PSoC4/isr_1.c **** }
 115:.\Generated_Source\PSoC4/isr_1.c **** 
 116:.\Generated_Source\PSoC4/isr_1.c **** 
 117:.\Generated_Source\PSoC4/isr_1.c **** /*******************************************************************************
 118:.\Generated_Source\PSoC4/isr_1.c **** * Function Name: isr_1_Stop
 119:.\Generated_Source\PSoC4/isr_1.c **** ********************************************************************************
 120:.\Generated_Source\PSoC4/isr_1.c **** *
 121:.\Generated_Source\PSoC4/isr_1.c **** * Summary:
 122:.\Generated_Source\PSoC4/isr_1.c **** *   Disables and removes the interrupt.
 123:.\Generated_Source\PSoC4/isr_1.c **** *
 124:.\Generated_Source\PSoC4/isr_1.c **** * Parameters:  
 125:.\Generated_Source\PSoC4/isr_1.c **** *   None
 126:.\Generated_Source\PSoC4/isr_1.c **** *
 127:.\Generated_Source\PSoC4/isr_1.c **** * Return:
 128:.\Generated_Source\PSoC4/isr_1.c **** *   None
 129:.\Generated_Source\PSoC4/isr_1.c **** *
 130:.\Generated_Source\PSoC4/isr_1.c **** *******************************************************************************/
 131:.\Generated_Source\PSoC4/isr_1.c **** void isr_1_Stop(void)
 132:.\Generated_Source\PSoC4/isr_1.c **** {
 133:.\Generated_Source\PSoC4/isr_1.c ****     /* Disable this interrupt. */
 134:.\Generated_Source\PSoC4/isr_1.c ****     isr_1_Disable();
 135:.\Generated_Source\PSoC4/isr_1.c **** 
 136:.\Generated_Source\PSoC4/isr_1.c ****     /* Set the ISR to point to the passive one. */
 137:.\Generated_Source\PSoC4/isr_1.c ****     isr_1_SetVector(&IntDefaultHandler);
 138:.\Generated_Source\PSoC4/isr_1.c **** }
 139:.\Generated_Source\PSoC4/isr_1.c **** 
 140:.\Generated_Source\PSoC4/isr_1.c **** 
 141:.\Generated_Source\PSoC4/isr_1.c **** /*******************************************************************************
 142:.\Generated_Source\PSoC4/isr_1.c **** * Function Name: isr_1_Interrupt
 143:.\Generated_Source\PSoC4/isr_1.c **** ********************************************************************************
 144:.\Generated_Source\PSoC4/isr_1.c **** *
 145:.\Generated_Source\PSoC4/isr_1.c **** * Summary:
 146:.\Generated_Source\PSoC4/isr_1.c **** *   The default Interrupt Service Routine for isr_1.
ARM GAS  C:\Users\sst5281\AppData\Local\Temp\ccrvTqxY.s 			page 4


 147:.\Generated_Source\PSoC4/isr_1.c **** *
 148:.\Generated_Source\PSoC4/isr_1.c **** *   Add custom code between the START and END comments to keep the next version
 149:.\Generated_Source\PSoC4/isr_1.c **** *   of this file from over-writing your code.
 150:.\Generated_Source\PSoC4/isr_1.c **** *
 151:.\Generated_Source\PSoC4/isr_1.c **** *   Note You may use either the default ISR by using this API, or you may define
 152:.\Generated_Source\PSoC4/isr_1.c **** *   your own separate ISR through ISR_StartEx().
 153:.\Generated_Source\PSoC4/isr_1.c **** *
 154:.\Generated_Source\PSoC4/isr_1.c **** * Parameters:  
 155:.\Generated_Source\PSoC4/isr_1.c **** *   None
 156:.\Generated_Source\PSoC4/isr_1.c **** *
 157:.\Generated_Source\PSoC4/isr_1.c **** * Return:
 158:.\Generated_Source\PSoC4/isr_1.c **** *   None
 159:.\Generated_Source\PSoC4/isr_1.c **** *
 160:.\Generated_Source\PSoC4/isr_1.c **** *******************************************************************************/
 161:.\Generated_Source\PSoC4/isr_1.c **** CY_ISR(isr_1_Interrupt)
 162:.\Generated_Source\PSoC4/isr_1.c **** {
  26              		.loc 1 162 0
  27              		.cfi_startproc
  28 0000 08B5     		push	{r3, lr}
  29              		.cfi_def_cfa_offset 8
  30              		.cfi_offset 3, -8
  31              		.cfi_offset 14, -4
 163:.\Generated_Source\PSoC4/isr_1.c ****     #ifdef isr_1_INTERRUPT_INTERRUPT_CALLBACK
 164:.\Generated_Source\PSoC4/isr_1.c ****         isr_1_Interrupt_InterruptCallback();
 165:.\Generated_Source\PSoC4/isr_1.c ****     #endif /* isr_1_INTERRUPT_INTERRUPT_CALLBACK */ 
 166:.\Generated_Source\PSoC4/isr_1.c **** 
 167:.\Generated_Source\PSoC4/isr_1.c ****     /*  Place your Interrupt code here. */
 168:.\Generated_Source\PSoC4/isr_1.c ****     /* `#START isr_1_Interrupt` */
 169:.\Generated_Source\PSoC4/isr_1.c ****     
 170:.\Generated_Source\PSoC4/isr_1.c ****     if ( LED_Blue_Read()==1) LED_Blue_Write(0);
  32              		.loc 1 170 0
  33 0002 FFF7FEFF 		bl	LED_Blue_Read
  34              	.LVL0:
  35 0006 0128     		cmp	r0, #1
  36 0008 03D1     		bne	.L2
  37              		.loc 1 170 0 is_stmt 0 discriminator 1
  38 000a 0020     		mov	r0, #0
  39 000c FFF7FEFF 		bl	LED_Blue_Write
  40              	.LVL1:
  41 0010 02E0     		b	.L3
  42              	.L2:
 171:.\Generated_Source\PSoC4/isr_1.c ****     else LED_Blue_Write(1);
  43              		.loc 1 171 0 is_stmt 1
  44 0012 0120     		mov	r0, #1
  45 0014 FFF7FEFF 		bl	LED_Blue_Write
  46              	.LVL2:
  47              	.L3:
 172:.\Generated_Source\PSoC4/isr_1.c ****     
 173:.\Generated_Source\PSoC4/isr_1.c ****     count++;
  48              		.loc 1 173 0
  49 0018 034A     		ldr	r2, .L4
  50 001a 1388     		ldrh	r3, [r2]
  51 001c 0133     		add	r3, r3, #1
  52 001e 1380     		strh	r3, [r2]
 174:.\Generated_Source\PSoC4/isr_1.c ****     
 175:.\Generated_Source\PSoC4/isr_1.c ****     //isr_1_Disable();
 176:.\Generated_Source\PSoC4/isr_1.c ****     Pin_1_ClearInterrupt();
ARM GAS  C:\Users\sst5281\AppData\Local\Temp\ccrvTqxY.s 			page 5


  53              		.loc 1 176 0
  54 0020 FFF7FEFF 		bl	Pin_1_ClearInterrupt
  55              	.LVL3:
 177:.\Generated_Source\PSoC4/isr_1.c ****     /* `#END` */
 178:.\Generated_Source\PSoC4/isr_1.c **** }
  56              		.loc 1 178 0
  57              		@ sp needed
  58 0024 08BD     		pop	{r3, pc}
  59              	.L5:
  60 0026 C046     		.align	2
  61              	.L4:
  62 0028 00000000 		.word	.LANCHOR0
  63              		.cfi_endproc
  64              	.LFE5:
  65              		.size	isr_1_Interrupt, .-isr_1_Interrupt
  66              		.section	.text.isr_1_SetVector,"ax",%progbits
  67              		.align	2
  68              		.global	isr_1_SetVector
  69              		.code	16
  70              		.thumb_func
  71              		.type	isr_1_SetVector, %function
  72              	isr_1_SetVector:
  73              	.LFB6:
 179:.\Generated_Source\PSoC4/isr_1.c **** 
 180:.\Generated_Source\PSoC4/isr_1.c **** 
 181:.\Generated_Source\PSoC4/isr_1.c **** /*******************************************************************************
 182:.\Generated_Source\PSoC4/isr_1.c **** * Function Name: isr_1_SetVector
 183:.\Generated_Source\PSoC4/isr_1.c **** ********************************************************************************
 184:.\Generated_Source\PSoC4/isr_1.c **** *
 185:.\Generated_Source\PSoC4/isr_1.c **** * Summary:
 186:.\Generated_Source\PSoC4/isr_1.c **** *   Change the ISR vector for the Interrupt. Note calling isr_1_Start
 187:.\Generated_Source\PSoC4/isr_1.c **** *   will override any effect this method would have had. To set the vector 
 188:.\Generated_Source\PSoC4/isr_1.c **** *   before the component has been started use isr_1_StartEx instead.
 189:.\Generated_Source\PSoC4/isr_1.c **** * 
 190:.\Generated_Source\PSoC4/isr_1.c **** *   When defining ISR functions, the CY_ISR and CY_ISR_PROTO macros should be 
 191:.\Generated_Source\PSoC4/isr_1.c **** *   used to provide consistent definition across compilers:
 192:.\Generated_Source\PSoC4/isr_1.c **** *
 193:.\Generated_Source\PSoC4/isr_1.c **** *   Function definition example:
 194:.\Generated_Source\PSoC4/isr_1.c **** *   CY_ISR(MyISR)
 195:.\Generated_Source\PSoC4/isr_1.c **** *   {
 196:.\Generated_Source\PSoC4/isr_1.c **** *   }
 197:.\Generated_Source\PSoC4/isr_1.c **** *
 198:.\Generated_Source\PSoC4/isr_1.c **** *   Function prototype example:
 199:.\Generated_Source\PSoC4/isr_1.c **** *     CY_ISR_PROTO(MyISR);
 200:.\Generated_Source\PSoC4/isr_1.c **** *
 201:.\Generated_Source\PSoC4/isr_1.c **** * Parameters:
 202:.\Generated_Source\PSoC4/isr_1.c **** *   address: Address of the ISR to set in the interrupt vector table.
 203:.\Generated_Source\PSoC4/isr_1.c **** *
 204:.\Generated_Source\PSoC4/isr_1.c **** * Return:
 205:.\Generated_Source\PSoC4/isr_1.c **** *   None
 206:.\Generated_Source\PSoC4/isr_1.c **** *
 207:.\Generated_Source\PSoC4/isr_1.c **** *******************************************************************************/
 208:.\Generated_Source\PSoC4/isr_1.c **** void isr_1_SetVector(cyisraddress address)
 209:.\Generated_Source\PSoC4/isr_1.c **** {
  74              		.loc 1 209 0
  75              		.cfi_startproc
  76              	.LVL4:
ARM GAS  C:\Users\sst5281\AppData\Local\Temp\ccrvTqxY.s 			page 6


 210:.\Generated_Source\PSoC4/isr_1.c ****     CyRamVectors[CYINT_IRQ_BASE + isr_1__INTC_NUMBER] = address;
  77              		.loc 1 210 0
  78 0000 014B     		ldr	r3, .L7
  79 0002 9864     		str	r0, [r3, #72]
 211:.\Generated_Source\PSoC4/isr_1.c **** }
  80              		.loc 1 211 0
  81              		@ sp needed
  82 0004 7047     		bx	lr
  83              	.L8:
  84 0006 C046     		.align	2
  85              	.L7:
  86 0008 00000000 		.word	CyRamVectors
  87              		.cfi_endproc
  88              	.LFE6:
  89              		.size	isr_1_SetVector, .-isr_1_SetVector
  90              		.section	.text.isr_1_GetVector,"ax",%progbits
  91              		.align	2
  92              		.global	isr_1_GetVector
  93              		.code	16
  94              		.thumb_func
  95              		.type	isr_1_GetVector, %function
  96              	isr_1_GetVector:
  97              	.LFB7:
 212:.\Generated_Source\PSoC4/isr_1.c **** 
 213:.\Generated_Source\PSoC4/isr_1.c **** 
 214:.\Generated_Source\PSoC4/isr_1.c **** /*******************************************************************************
 215:.\Generated_Source\PSoC4/isr_1.c **** * Function Name: isr_1_GetVector
 216:.\Generated_Source\PSoC4/isr_1.c **** ********************************************************************************
 217:.\Generated_Source\PSoC4/isr_1.c **** *
 218:.\Generated_Source\PSoC4/isr_1.c **** * Summary:
 219:.\Generated_Source\PSoC4/isr_1.c **** *   Gets the "address" of the current ISR vector for the Interrupt.
 220:.\Generated_Source\PSoC4/isr_1.c **** *
 221:.\Generated_Source\PSoC4/isr_1.c **** * Parameters:
 222:.\Generated_Source\PSoC4/isr_1.c **** *   None
 223:.\Generated_Source\PSoC4/isr_1.c **** *
 224:.\Generated_Source\PSoC4/isr_1.c **** * Return:
 225:.\Generated_Source\PSoC4/isr_1.c **** *   Address of the ISR in the interrupt vector table.
 226:.\Generated_Source\PSoC4/isr_1.c **** *
 227:.\Generated_Source\PSoC4/isr_1.c **** *******************************************************************************/
 228:.\Generated_Source\PSoC4/isr_1.c **** cyisraddress isr_1_GetVector(void)
 229:.\Generated_Source\PSoC4/isr_1.c **** {
  98              		.loc 1 229 0
  99              		.cfi_startproc
 230:.\Generated_Source\PSoC4/isr_1.c ****     return CyRamVectors[CYINT_IRQ_BASE + isr_1__INTC_NUMBER];
 100              		.loc 1 230 0
 101 0000 014B     		ldr	r3, .L10
 102 0002 986C     		ldr	r0, [r3, #72]
 231:.\Generated_Source\PSoC4/isr_1.c **** }
 103              		.loc 1 231 0
 104              		@ sp needed
 105 0004 7047     		bx	lr
 106              	.L11:
 107 0006 C046     		.align	2
 108              	.L10:
 109 0008 00000000 		.word	CyRamVectors
 110              		.cfi_endproc
 111              	.LFE7:
ARM GAS  C:\Users\sst5281\AppData\Local\Temp\ccrvTqxY.s 			page 7


 112              		.size	isr_1_GetVector, .-isr_1_GetVector
 113              		.section	.text.isr_1_SetPriority,"ax",%progbits
 114              		.align	2
 115              		.global	isr_1_SetPriority
 116              		.code	16
 117              		.thumb_func
 118              		.type	isr_1_SetPriority, %function
 119              	isr_1_SetPriority:
 120              	.LFB8:
 232:.\Generated_Source\PSoC4/isr_1.c **** 
 233:.\Generated_Source\PSoC4/isr_1.c **** 
 234:.\Generated_Source\PSoC4/isr_1.c **** /*******************************************************************************
 235:.\Generated_Source\PSoC4/isr_1.c **** * Function Name: isr_1_SetPriority
 236:.\Generated_Source\PSoC4/isr_1.c **** ********************************************************************************
 237:.\Generated_Source\PSoC4/isr_1.c **** *
 238:.\Generated_Source\PSoC4/isr_1.c **** * Summary:
 239:.\Generated_Source\PSoC4/isr_1.c **** *   Sets the Priority of the Interrupt. 
 240:.\Generated_Source\PSoC4/isr_1.c **** *
 241:.\Generated_Source\PSoC4/isr_1.c **** *   Note calling isr_1_Start or isr_1_StartEx will 
 242:.\Generated_Source\PSoC4/isr_1.c **** *   override any effect this API would have had. This API should only be called
 243:.\Generated_Source\PSoC4/isr_1.c **** *   after isr_1_Start or isr_1_StartEx has been called. 
 244:.\Generated_Source\PSoC4/isr_1.c **** *   To set the initial priority for the component, use the Design-Wide Resources
 245:.\Generated_Source\PSoC4/isr_1.c **** *   Interrupt Editor.
 246:.\Generated_Source\PSoC4/isr_1.c **** *
 247:.\Generated_Source\PSoC4/isr_1.c **** *   Note This API has no effect on Non-maskable interrupt NMI).
 248:.\Generated_Source\PSoC4/isr_1.c **** *
 249:.\Generated_Source\PSoC4/isr_1.c **** * Parameters:
 250:.\Generated_Source\PSoC4/isr_1.c **** *   priority: Priority of the interrupt, 0 being the highest priority
 251:.\Generated_Source\PSoC4/isr_1.c **** *             PSoC 3 and PSoC 5LP: Priority is from 0 to 7.
 252:.\Generated_Source\PSoC4/isr_1.c **** *             PSoC 4: Priority is from 0 to 3.
 253:.\Generated_Source\PSoC4/isr_1.c **** *
 254:.\Generated_Source\PSoC4/isr_1.c **** * Return:
 255:.\Generated_Source\PSoC4/isr_1.c **** *   None
 256:.\Generated_Source\PSoC4/isr_1.c **** *
 257:.\Generated_Source\PSoC4/isr_1.c **** *******************************************************************************/
 258:.\Generated_Source\PSoC4/isr_1.c **** void isr_1_SetPriority(uint8 priority)
 259:.\Generated_Source\PSoC4/isr_1.c **** {
 121              		.loc 1 259 0
 122              		.cfi_startproc
 123              	.LVL5:
 124 0000 10B5     		push	{r4, lr}
 125              		.cfi_def_cfa_offset 8
 126              		.cfi_offset 4, -8
 127              		.cfi_offset 14, -4
 128 0002 041C     		mov	r4, r0
 129              	.LVL6:
 260:.\Generated_Source\PSoC4/isr_1.c **** 	uint8 interruptState;
 261:.\Generated_Source\PSoC4/isr_1.c ****     uint32 priorityOffset = ((isr_1__INTC_NUMBER % 4u) * 8u) + 6u;
 262:.\Generated_Source\PSoC4/isr_1.c ****     
 263:.\Generated_Source\PSoC4/isr_1.c **** 	interruptState = CyEnterCriticalSection();
 130              		.loc 1 263 0
 131 0004 FFF7FEFF 		bl	CyEnterCriticalSection
 132              	.LVL7:
 264:.\Generated_Source\PSoC4/isr_1.c ****     *isr_1_INTC_PRIOR = (*isr_1_INTC_PRIOR & (uint32)(~isr_1__INTC_PRIOR_MASK)) |
 133              		.loc 1 264 0
 134 0008 044A     		ldr	r2, .L13
 135 000a 1168     		ldr	r1, [r2]
ARM GAS  C:\Users\sst5281\AppData\Local\Temp\ccrvTqxY.s 			page 8


 136 000c 044B     		ldr	r3, .L13+4
 137 000e 0B40     		and	r3, r1
 265:.\Generated_Source\PSoC4/isr_1.c ****                                     ((uint32)priority << priorityOffset);
 138              		.loc 1 265 0
 139 0010 A405     		lsl	r4, r4, #22
 264:.\Generated_Source\PSoC4/isr_1.c ****     *isr_1_INTC_PRIOR = (*isr_1_INTC_PRIOR & (uint32)(~isr_1__INTC_PRIOR_MASK)) |
 140              		.loc 1 264 0
 141 0012 1C43     		orr	r4, r3
 142 0014 1460     		str	r4, [r2]
 266:.\Generated_Source\PSoC4/isr_1.c **** 	CyExitCriticalSection(interruptState);
 143              		.loc 1 266 0
 144 0016 FFF7FEFF 		bl	CyExitCriticalSection
 145              	.LVL8:
 267:.\Generated_Source\PSoC4/isr_1.c **** }
 146              		.loc 1 267 0
 147              		@ sp needed
 148 001a 10BD     		pop	{r4, pc}
 149              	.L14:
 150              		.align	2
 151              	.L13:
 152 001c 00E400E0 		.word	-536812544
 153 0020 FFFF3FFF 		.word	-12582913
 154              		.cfi_endproc
 155              	.LFE8:
 156              		.size	isr_1_SetPriority, .-isr_1_SetPriority
 157              		.section	.text.isr_1_GetPriority,"ax",%progbits
 158              		.align	2
 159              		.global	isr_1_GetPriority
 160              		.code	16
 161              		.thumb_func
 162              		.type	isr_1_GetPriority, %function
 163              	isr_1_GetPriority:
 164              	.LFB9:
 268:.\Generated_Source\PSoC4/isr_1.c **** 
 269:.\Generated_Source\PSoC4/isr_1.c **** 
 270:.\Generated_Source\PSoC4/isr_1.c **** /*******************************************************************************
 271:.\Generated_Source\PSoC4/isr_1.c **** * Function Name: isr_1_GetPriority
 272:.\Generated_Source\PSoC4/isr_1.c **** ********************************************************************************
 273:.\Generated_Source\PSoC4/isr_1.c **** *
 274:.\Generated_Source\PSoC4/isr_1.c **** * Summary:
 275:.\Generated_Source\PSoC4/isr_1.c **** *   Gets the Priority of the Interrupt.
 276:.\Generated_Source\PSoC4/isr_1.c **** *
 277:.\Generated_Source\PSoC4/isr_1.c **** * Parameters:
 278:.\Generated_Source\PSoC4/isr_1.c **** *   None
 279:.\Generated_Source\PSoC4/isr_1.c **** *
 280:.\Generated_Source\PSoC4/isr_1.c **** * Return:
 281:.\Generated_Source\PSoC4/isr_1.c **** *   Priority of the interrupt, 0 being the highest priority
 282:.\Generated_Source\PSoC4/isr_1.c **** *    PSoC 3 and PSoC 5LP: Priority is from 0 to 7.
 283:.\Generated_Source\PSoC4/isr_1.c **** *    PSoC 4: Priority is from 0 to 3.
 284:.\Generated_Source\PSoC4/isr_1.c **** *
 285:.\Generated_Source\PSoC4/isr_1.c **** *******************************************************************************/
 286:.\Generated_Source\PSoC4/isr_1.c **** uint8 isr_1_GetPriority(void)
 287:.\Generated_Source\PSoC4/isr_1.c **** {
 165              		.loc 1 287 0
 166              		.cfi_startproc
 167              	.LVL9:
 288:.\Generated_Source\PSoC4/isr_1.c ****     uint32 priority;
ARM GAS  C:\Users\sst5281\AppData\Local\Temp\ccrvTqxY.s 			page 9


 289:.\Generated_Source\PSoC4/isr_1.c **** 	uint32 priorityOffset = ((isr_1__INTC_NUMBER % 4u) * 8u) + 6u;
 290:.\Generated_Source\PSoC4/isr_1.c **** 
 291:.\Generated_Source\PSoC4/isr_1.c ****     priority = (*isr_1_INTC_PRIOR & isr_1__INTC_PRIOR_MASK) >> priorityOffset;
 168              		.loc 1 291 0
 169 0000 024B     		ldr	r3, .L16
 170 0002 1868     		ldr	r0, [r3]
 171 0004 0002     		lsl	r0, r0, #8
 172              	.LVL10:
 292:.\Generated_Source\PSoC4/isr_1.c **** 
 293:.\Generated_Source\PSoC4/isr_1.c ****     return (uint8)priority;
 173              		.loc 1 293 0
 174 0006 800F     		lsr	r0, r0, #30
 175              	.LVL11:
 294:.\Generated_Source\PSoC4/isr_1.c **** }
 176              		.loc 1 294 0
 177              		@ sp needed
 178 0008 7047     		bx	lr
 179              	.L17:
 180 000a C046     		.align	2
 181              	.L16:
 182 000c 00E400E0 		.word	-536812544
 183              		.cfi_endproc
 184              	.LFE9:
 185              		.size	isr_1_GetPriority, .-isr_1_GetPriority
 186              		.section	.text.isr_1_Enable,"ax",%progbits
 187              		.align	2
 188              		.global	isr_1_Enable
 189              		.code	16
 190              		.thumb_func
 191              		.type	isr_1_Enable, %function
 192              	isr_1_Enable:
 193              	.LFB10:
 295:.\Generated_Source\PSoC4/isr_1.c **** 
 296:.\Generated_Source\PSoC4/isr_1.c **** 
 297:.\Generated_Source\PSoC4/isr_1.c **** /*******************************************************************************
 298:.\Generated_Source\PSoC4/isr_1.c **** * Function Name: isr_1_Enable
 299:.\Generated_Source\PSoC4/isr_1.c **** ********************************************************************************
 300:.\Generated_Source\PSoC4/isr_1.c **** *
 301:.\Generated_Source\PSoC4/isr_1.c **** * Summary:
 302:.\Generated_Source\PSoC4/isr_1.c **** *   Enables the interrupt to the interrupt controller. Do not call this function
 303:.\Generated_Source\PSoC4/isr_1.c **** *   unless ISR_Start() has been called or the functionality of the ISR_Start() 
 304:.\Generated_Source\PSoC4/isr_1.c **** *   function, which sets the vector and the priority, has been called.
 305:.\Generated_Source\PSoC4/isr_1.c **** *
 306:.\Generated_Source\PSoC4/isr_1.c **** * Parameters:
 307:.\Generated_Source\PSoC4/isr_1.c **** *   None
 308:.\Generated_Source\PSoC4/isr_1.c **** *
 309:.\Generated_Source\PSoC4/isr_1.c **** * Return:
 310:.\Generated_Source\PSoC4/isr_1.c **** *   None
 311:.\Generated_Source\PSoC4/isr_1.c **** *
 312:.\Generated_Source\PSoC4/isr_1.c **** *******************************************************************************/
 313:.\Generated_Source\PSoC4/isr_1.c **** void isr_1_Enable(void)
 314:.\Generated_Source\PSoC4/isr_1.c **** {
 194              		.loc 1 314 0
 195              		.cfi_startproc
 315:.\Generated_Source\PSoC4/isr_1.c ****     /* Enable the general interrupt. */
 316:.\Generated_Source\PSoC4/isr_1.c ****     *isr_1_INTC_SET_EN = isr_1__INTC_MASK;
 196              		.loc 1 316 0
ARM GAS  C:\Users\sst5281\AppData\Local\Temp\ccrvTqxY.s 			page 10


 197 0000 0422     		mov	r2, #4
 198 0002 014B     		ldr	r3, .L19
 199 0004 1A60     		str	r2, [r3]
 317:.\Generated_Source\PSoC4/isr_1.c **** }
 200              		.loc 1 317 0
 201              		@ sp needed
 202 0006 7047     		bx	lr
 203              	.L20:
 204              		.align	2
 205              	.L19:
 206 0008 00E100E0 		.word	-536813312
 207              		.cfi_endproc
 208              	.LFE10:
 209              		.size	isr_1_Enable, .-isr_1_Enable
 210              		.section	.text.isr_1_GetState,"ax",%progbits
 211              		.align	2
 212              		.global	isr_1_GetState
 213              		.code	16
 214              		.thumb_func
 215              		.type	isr_1_GetState, %function
 216              	isr_1_GetState:
 217              	.LFB11:
 318:.\Generated_Source\PSoC4/isr_1.c **** 
 319:.\Generated_Source\PSoC4/isr_1.c **** 
 320:.\Generated_Source\PSoC4/isr_1.c **** /*******************************************************************************
 321:.\Generated_Source\PSoC4/isr_1.c **** * Function Name: isr_1_GetState
 322:.\Generated_Source\PSoC4/isr_1.c **** ********************************************************************************
 323:.\Generated_Source\PSoC4/isr_1.c **** *
 324:.\Generated_Source\PSoC4/isr_1.c **** * Summary:
 325:.\Generated_Source\PSoC4/isr_1.c **** *   Gets the state (enabled, disabled) of the Interrupt.
 326:.\Generated_Source\PSoC4/isr_1.c **** *
 327:.\Generated_Source\PSoC4/isr_1.c **** * Parameters:
 328:.\Generated_Source\PSoC4/isr_1.c **** *   None
 329:.\Generated_Source\PSoC4/isr_1.c **** *
 330:.\Generated_Source\PSoC4/isr_1.c **** * Return:
 331:.\Generated_Source\PSoC4/isr_1.c **** *   1 if enabled, 0 if disabled.
 332:.\Generated_Source\PSoC4/isr_1.c **** *
 333:.\Generated_Source\PSoC4/isr_1.c **** *******************************************************************************/
 334:.\Generated_Source\PSoC4/isr_1.c **** uint8 isr_1_GetState(void)
 335:.\Generated_Source\PSoC4/isr_1.c **** {
 218              		.loc 1 335 0
 219              		.cfi_startproc
 336:.\Generated_Source\PSoC4/isr_1.c ****     /* Get the state of the general interrupt. */
 337:.\Generated_Source\PSoC4/isr_1.c ****     return ((*isr_1_INTC_SET_EN & (uint32)isr_1__INTC_MASK) != 0u) ? 1u:0u;
 220              		.loc 1 337 0
 221 0000 034B     		ldr	r3, .L24
 222 0002 1B68     		ldr	r3, [r3]
 223 0004 5B07     		lsl	r3, r3, #29
 224 0006 01D5     		bpl	.L23
 225 0008 0120     		mov	r0, #1
 226 000a 00E0     		b	.L22
 227              	.L23:
 228 000c 0020     		mov	r0, #0
 229              	.L22:
 338:.\Generated_Source\PSoC4/isr_1.c **** }
 230              		.loc 1 338 0 discriminator 4
 231              		@ sp needed
ARM GAS  C:\Users\sst5281\AppData\Local\Temp\ccrvTqxY.s 			page 11


 232 000e 7047     		bx	lr
 233              	.L25:
 234              		.align	2
 235              	.L24:
 236 0010 00E100E0 		.word	-536813312
 237              		.cfi_endproc
 238              	.LFE11:
 239              		.size	isr_1_GetState, .-isr_1_GetState
 240              		.section	.text.isr_1_Disable,"ax",%progbits
 241              		.align	2
 242              		.global	isr_1_Disable
 243              		.code	16
 244              		.thumb_func
 245              		.type	isr_1_Disable, %function
 246              	isr_1_Disable:
 247              	.LFB12:
 339:.\Generated_Source\PSoC4/isr_1.c **** 
 340:.\Generated_Source\PSoC4/isr_1.c **** 
 341:.\Generated_Source\PSoC4/isr_1.c **** /*******************************************************************************
 342:.\Generated_Source\PSoC4/isr_1.c **** * Function Name: isr_1_Disable
 343:.\Generated_Source\PSoC4/isr_1.c **** ********************************************************************************
 344:.\Generated_Source\PSoC4/isr_1.c **** *
 345:.\Generated_Source\PSoC4/isr_1.c **** * Summary:
 346:.\Generated_Source\PSoC4/isr_1.c **** *   Disables the Interrupt in the interrupt controller.
 347:.\Generated_Source\PSoC4/isr_1.c **** *
 348:.\Generated_Source\PSoC4/isr_1.c **** * Parameters:
 349:.\Generated_Source\PSoC4/isr_1.c **** *   None
 350:.\Generated_Source\PSoC4/isr_1.c **** *
 351:.\Generated_Source\PSoC4/isr_1.c **** * Return:
 352:.\Generated_Source\PSoC4/isr_1.c **** *   None
 353:.\Generated_Source\PSoC4/isr_1.c **** *
 354:.\Generated_Source\PSoC4/isr_1.c **** *******************************************************************************/
 355:.\Generated_Source\PSoC4/isr_1.c **** void isr_1_Disable(void)
 356:.\Generated_Source\PSoC4/isr_1.c **** {
 248              		.loc 1 356 0
 249              		.cfi_startproc
 357:.\Generated_Source\PSoC4/isr_1.c ****     /* Disable the general interrupt. */
 358:.\Generated_Source\PSoC4/isr_1.c ****     *isr_1_INTC_CLR_EN = isr_1__INTC_MASK;
 250              		.loc 1 358 0
 251 0000 0422     		mov	r2, #4
 252 0002 014B     		ldr	r3, .L27
 253 0004 1A60     		str	r2, [r3]
 359:.\Generated_Source\PSoC4/isr_1.c **** }
 254              		.loc 1 359 0
 255              		@ sp needed
 256 0006 7047     		bx	lr
 257              	.L28:
 258              		.align	2
 259              	.L27:
 260 0008 80E100E0 		.word	-536813184
 261              		.cfi_endproc
 262              	.LFE12:
 263              		.size	isr_1_Disable, .-isr_1_Disable
 264              		.section	.text.isr_1_Start,"ax",%progbits
 265              		.align	2
 266              		.global	isr_1_Start
 267              		.code	16
ARM GAS  C:\Users\sst5281\AppData\Local\Temp\ccrvTqxY.s 			page 12


 268              		.thumb_func
 269              		.type	isr_1_Start, %function
 270              	isr_1_Start:
 271              	.LFB2:
  59:.\Generated_Source\PSoC4/isr_1.c ****     /* For all we know the interrupt is active. */
 272              		.loc 1 59 0
 273              		.cfi_startproc
 274 0000 08B5     		push	{r3, lr}
 275              		.cfi_def_cfa_offset 8
 276              		.cfi_offset 3, -8
 277              		.cfi_offset 14, -4
  61:.\Generated_Source\PSoC4/isr_1.c **** 
 278              		.loc 1 61 0
 279 0002 FFF7FEFF 		bl	isr_1_Disable
 280              	.LVL12:
  64:.\Generated_Source\PSoC4/isr_1.c **** 
 281              		.loc 1 64 0
 282 0006 0448     		ldr	r0, .L30
 283 0008 FFF7FEFF 		bl	isr_1_SetVector
 284              	.LVL13:
  67:.\Generated_Source\PSoC4/isr_1.c **** 
 285              		.loc 1 67 0
 286 000c 0320     		mov	r0, #3
 287 000e FFF7FEFF 		bl	isr_1_SetPriority
 288              	.LVL14:
  70:.\Generated_Source\PSoC4/isr_1.c **** }
 289              		.loc 1 70 0
 290 0012 FFF7FEFF 		bl	isr_1_Enable
 291              	.LVL15:
  71:.\Generated_Source\PSoC4/isr_1.c **** 
 292              		.loc 1 71 0
 293              		@ sp needed
 294 0016 08BD     		pop	{r3, pc}
 295              	.L31:
 296              		.align	2
 297              	.L30:
 298 0018 00000000 		.word	isr_1_Interrupt
 299              		.cfi_endproc
 300              	.LFE2:
 301              		.size	isr_1_Start, .-isr_1_Start
 302              		.section	.text.isr_1_StartEx,"ax",%progbits
 303              		.align	2
 304              		.global	isr_1_StartEx
 305              		.code	16
 306              		.thumb_func
 307              		.type	isr_1_StartEx, %function
 308              	isr_1_StartEx:
 309              	.LFB3:
 102:.\Generated_Source\PSoC4/isr_1.c ****     /* For all we know the interrupt is active. */
 310              		.loc 1 102 0
 311              		.cfi_startproc
 312              	.LVL16:
 313 0000 10B5     		push	{r4, lr}
 314              		.cfi_def_cfa_offset 8
 315              		.cfi_offset 4, -8
 316              		.cfi_offset 14, -4
 317 0002 041C     		mov	r4, r0
ARM GAS  C:\Users\sst5281\AppData\Local\Temp\ccrvTqxY.s 			page 13


 104:.\Generated_Source\PSoC4/isr_1.c **** 
 318              		.loc 1 104 0
 319 0004 FFF7FEFF 		bl	isr_1_Disable
 320              	.LVL17:
 107:.\Generated_Source\PSoC4/isr_1.c **** 
 321              		.loc 1 107 0
 322 0008 201C     		mov	r0, r4
 323 000a FFF7FEFF 		bl	isr_1_SetVector
 324              	.LVL18:
 110:.\Generated_Source\PSoC4/isr_1.c **** 
 325              		.loc 1 110 0
 326 000e 0320     		mov	r0, #3
 327 0010 FFF7FEFF 		bl	isr_1_SetPriority
 328              	.LVL19:
 113:.\Generated_Source\PSoC4/isr_1.c **** }
 329              		.loc 1 113 0
 330 0014 FFF7FEFF 		bl	isr_1_Enable
 331              	.LVL20:
 114:.\Generated_Source\PSoC4/isr_1.c **** 
 332              		.loc 1 114 0
 333              		@ sp needed
 334              	.LVL21:
 335 0018 10BD     		pop	{r4, pc}
 336              		.cfi_endproc
 337              	.LFE3:
 338              		.size	isr_1_StartEx, .-isr_1_StartEx
 339 001a C046     		.section	.text.isr_1_Stop,"ax",%progbits
 340              		.align	2
 341              		.global	isr_1_Stop
 342              		.code	16
 343              		.thumb_func
 344              		.type	isr_1_Stop, %function
 345              	isr_1_Stop:
 346              	.LFB4:
 132:.\Generated_Source\PSoC4/isr_1.c ****     /* Disable this interrupt. */
 347              		.loc 1 132 0
 348              		.cfi_startproc
 349 0000 08B5     		push	{r3, lr}
 350              		.cfi_def_cfa_offset 8
 351              		.cfi_offset 3, -8
 352              		.cfi_offset 14, -4
 134:.\Generated_Source\PSoC4/isr_1.c **** 
 353              		.loc 1 134 0
 354 0002 FFF7FEFF 		bl	isr_1_Disable
 355              	.LVL22:
 137:.\Generated_Source\PSoC4/isr_1.c **** }
 356              		.loc 1 137 0
 357 0006 0248     		ldr	r0, .L34
 358 0008 FFF7FEFF 		bl	isr_1_SetVector
 359              	.LVL23:
 138:.\Generated_Source\PSoC4/isr_1.c **** 
 360              		.loc 1 138 0
 361              		@ sp needed
 362 000c 08BD     		pop	{r3, pc}
 363              	.L35:
 364 000e C046     		.align	2
 365              	.L34:
ARM GAS  C:\Users\sst5281\AppData\Local\Temp\ccrvTqxY.s 			page 14


 366 0010 00000000 		.word	IntDefaultHandler
 367              		.cfi_endproc
 368              	.LFE4:
 369              		.size	isr_1_Stop, .-isr_1_Stop
 370              		.section	.text.isr_1_SetPending,"ax",%progbits
 371              		.align	2
 372              		.global	isr_1_SetPending
 373              		.code	16
 374              		.thumb_func
 375              		.type	isr_1_SetPending, %function
 376              	isr_1_SetPending:
 377              	.LFB13:
 360:.\Generated_Source\PSoC4/isr_1.c **** 
 361:.\Generated_Source\PSoC4/isr_1.c **** 
 362:.\Generated_Source\PSoC4/isr_1.c **** /*******************************************************************************
 363:.\Generated_Source\PSoC4/isr_1.c **** * Function Name: isr_1_SetPending
 364:.\Generated_Source\PSoC4/isr_1.c **** ********************************************************************************
 365:.\Generated_Source\PSoC4/isr_1.c **** *
 366:.\Generated_Source\PSoC4/isr_1.c **** * Summary:
 367:.\Generated_Source\PSoC4/isr_1.c **** *   Causes the Interrupt to enter the pending state, a software method of
 368:.\Generated_Source\PSoC4/isr_1.c **** *   generating the interrupt.
 369:.\Generated_Source\PSoC4/isr_1.c **** *
 370:.\Generated_Source\PSoC4/isr_1.c **** * Parameters:
 371:.\Generated_Source\PSoC4/isr_1.c **** *   None
 372:.\Generated_Source\PSoC4/isr_1.c **** *
 373:.\Generated_Source\PSoC4/isr_1.c **** * Return:
 374:.\Generated_Source\PSoC4/isr_1.c **** *   None
 375:.\Generated_Source\PSoC4/isr_1.c **** *
 376:.\Generated_Source\PSoC4/isr_1.c **** * Side Effects:
 377:.\Generated_Source\PSoC4/isr_1.c **** *   If interrupts are enabled and the interrupt is set up properly, the ISR is
 378:.\Generated_Source\PSoC4/isr_1.c **** *   entered (depending on the priority of this interrupt and other pending 
 379:.\Generated_Source\PSoC4/isr_1.c **** *   interrupts).
 380:.\Generated_Source\PSoC4/isr_1.c **** *
 381:.\Generated_Source\PSoC4/isr_1.c **** *******************************************************************************/
 382:.\Generated_Source\PSoC4/isr_1.c **** void isr_1_SetPending(void)
 383:.\Generated_Source\PSoC4/isr_1.c **** {
 378              		.loc 1 383 0
 379              		.cfi_startproc
 384:.\Generated_Source\PSoC4/isr_1.c ****     *isr_1_INTC_SET_PD = isr_1__INTC_MASK;
 380              		.loc 1 384 0
 381 0000 0422     		mov	r2, #4
 382 0002 014B     		ldr	r3, .L37
 383 0004 1A60     		str	r2, [r3]
 385:.\Generated_Source\PSoC4/isr_1.c **** }
 384              		.loc 1 385 0
 385              		@ sp needed
 386 0006 7047     		bx	lr
 387              	.L38:
 388              		.align	2
 389              	.L37:
 390 0008 00E200E0 		.word	-536813056
 391              		.cfi_endproc
 392              	.LFE13:
 393              		.size	isr_1_SetPending, .-isr_1_SetPending
 394              		.section	.text.isr_1_ClearPending,"ax",%progbits
 395              		.align	2
 396              		.global	isr_1_ClearPending
ARM GAS  C:\Users\sst5281\AppData\Local\Temp\ccrvTqxY.s 			page 15


 397              		.code	16
 398              		.thumb_func
 399              		.type	isr_1_ClearPending, %function
 400              	isr_1_ClearPending:
 401              	.LFB14:
 386:.\Generated_Source\PSoC4/isr_1.c **** 
 387:.\Generated_Source\PSoC4/isr_1.c **** 
 388:.\Generated_Source\PSoC4/isr_1.c **** /*******************************************************************************
 389:.\Generated_Source\PSoC4/isr_1.c **** * Function Name: isr_1_ClearPending
 390:.\Generated_Source\PSoC4/isr_1.c **** ********************************************************************************
 391:.\Generated_Source\PSoC4/isr_1.c **** *
 392:.\Generated_Source\PSoC4/isr_1.c **** * Summary:
 393:.\Generated_Source\PSoC4/isr_1.c **** *   Clears a pending interrupt in the interrupt controller.
 394:.\Generated_Source\PSoC4/isr_1.c **** *
 395:.\Generated_Source\PSoC4/isr_1.c **** *   Note Some interrupt sources are clear-on-read and require the block 
 396:.\Generated_Source\PSoC4/isr_1.c **** *   interrupt/status register to be read/cleared with the appropriate block API 
 397:.\Generated_Source\PSoC4/isr_1.c **** *   (GPIO, UART, and so on). Otherwise the ISR will continue to remain in 
 398:.\Generated_Source\PSoC4/isr_1.c **** *   pending state even though the interrupt itself is cleared using this API.
 399:.\Generated_Source\PSoC4/isr_1.c **** *
 400:.\Generated_Source\PSoC4/isr_1.c **** * Parameters:
 401:.\Generated_Source\PSoC4/isr_1.c **** *   None
 402:.\Generated_Source\PSoC4/isr_1.c **** *
 403:.\Generated_Source\PSoC4/isr_1.c **** * Return:
 404:.\Generated_Source\PSoC4/isr_1.c **** *   None
 405:.\Generated_Source\PSoC4/isr_1.c **** *
 406:.\Generated_Source\PSoC4/isr_1.c **** *******************************************************************************/
 407:.\Generated_Source\PSoC4/isr_1.c **** void isr_1_ClearPending(void)
 408:.\Generated_Source\PSoC4/isr_1.c **** {
 402              		.loc 1 408 0
 403              		.cfi_startproc
 409:.\Generated_Source\PSoC4/isr_1.c ****     *isr_1_INTC_CLR_PD = isr_1__INTC_MASK;
 404              		.loc 1 409 0
 405 0000 0422     		mov	r2, #4
 406 0002 014B     		ldr	r3, .L40
 407 0004 1A60     		str	r2, [r3]
 410:.\Generated_Source\PSoC4/isr_1.c **** }
 408              		.loc 1 410 0
 409              		@ sp needed
 410 0006 7047     		bx	lr
 411              	.L41:
 412              		.align	2
 413              	.L40:
 414 0008 80E200E0 		.word	-536812928
 415              		.cfi_endproc
 416              	.LFE14:
 417              		.size	isr_1_ClearPending, .-isr_1_ClearPending
 418              		.global	count
 419              		.bss
 420              		.align	1
 421              		.set	.LANCHOR0,. + 0
 422              		.type	count, %object
 423              		.size	count, 2
 424              	count:
 425 0000 0000     		.space	2
 426              		.text
 427              	.Letext0:
 428              		.file 2 "Generated_Source\\PSoC4/cytypes.h"
ARM GAS  C:\Users\sst5281\AppData\Local\Temp\ccrvTqxY.s 			page 16


 429              		.file 3 "Generated_Source\\PSoC4/LED_Blue.h"
 430              		.file 4 "Generated_Source\\PSoC4/Pin_1.h"
 431              		.file 5 "Generated_Source\\PSoC4/CyLib.h"