ARM GAS  C:\Users\sst5281\AppData\Local\Temp\ccv4Agjo.s 			page 1


   1              		.cpu cortex-m0
   2              		.fpu softvfp
   3              		.eabi_attribute 20, 1
   4              		.eabi_attribute 21, 1
   5              		.eabi_attribute 23, 3
   6              		.eabi_attribute 24, 1
   7              		.eabi_attribute 25, 1
   8              		.eabi_attribute 26, 1
   9              		.eabi_attribute 30, 1
  10              		.eabi_attribute 34, 0
  11              		.eabi_attribute 18, 4
  12              		.code	16
  13              		.file	"main.c"
  14              		.text
  15              	.Ltext0:
  16              		.cfi_sections	.debug_frame
  17              		.section	.text.StackEventHandler,"ax",%progbits
  18              		.align	2
  19              		.global	StackEventHandler
  20              		.code	16
  21              		.thumb_func
  22              		.type	StackEventHandler, %function
  23              	StackEventHandler:
  24              	.LFB38:
  25              		.file 1 ".\\main.c"
   1:.\main.c      **** /* ========================================
   2:.\main.c      ****  *
   3:.\main.c      ****  * Copyright YOUR COMPANY, THE YEAR
   4:.\main.c      ****  * All Rights Reserved
   5:.\main.c      ****  * UNPUBLISHED, LICENSED SOFTWARE.
   6:.\main.c      ****  *
   7:.\main.c      ****  * CONFIDENTIAL AND PROPRIETARY INFORMATION
   8:.\main.c      ****  * WHICH IS THE PROPERTY OF your company.
   9:.\main.c      ****  *
  10:.\main.c      ****  * ========================================
  11:.\main.c      **** */
  12:.\main.c      **** #include <project.h> 
  13:.\main.c      **** #include "iprintf.h"
  14:.\main.c      ****  
  15:.\main.c      **** #define LED_ON                  (0u) 
  16:.\main.c      **** #define LED_OFF                 (1u) 
  17:.\main.c      **** #define NO_ALERT                (0u) 
  18:.\main.c      **** #define MILD_ALERT              (1u) 
  19:.\main.c      **** #define HIGH_ALERT              (2u) 
  20:.\main.c      ****  
  21:.\main.c      **** #define LED_TOGGLE_TIMEOUT      (100u) 
  22:.\main.c      ****  
  23:.\main.c      **** void StackEventHandler(uint32 event, void *eventParam); 
  24:.\main.c      **** void IasEventHandler(uint32 event, void *eventParam); 
  25:.\main.c      ****  
  26:.\main.c      **** uint8 alertLevel; 
  27:.\main.c      **** uint8 alertLevelOld;
  28:.\main.c      ****  
  29:.\main.c      **** int main() {   CYBLE_API_RESULT_T apiResult; 
  30:.\main.c      ****  
  31:.\main.c      ****     CyGlobalIntEnable; 
  32:.\main.c      ****  
ARM GAS  C:\Users\sst5281\AppData\Local\Temp\ccv4Agjo.s 			page 2


  33:.\main.c      ****     apiResult = CyBle_Start(StackEventHandler); 
  34:.\main.c      ****  
  35:.\main.c      ****     if(apiResult != CYBLE_ERROR_OK)   {     
  36:.\main.c      ****         /* BLE stack initialization failed, check your configuration */     
  37:.\main.c      ****         CYASSERT(0);   
  38:.\main.c      ****     } 
  39:.\main.c      ****  
  40:.\main.c      ****     CyBle_IasRegisterAttrCallback(IasEventHandler); 
  41:.\main.c      ****     
  42:.\main.c      ****     SCB_1_Start();
  43:.\main.c      ****     iprintf("Hello World!\n\r");
  44:.\main.c      ****  
  45:.\main.c      ****     for(;;) {     
  46:.\main.c      ****         static uint8 toggleTimeout = 0;     
  47:.\main.c      ****         CYBLE_BLESS_STATE_T blessState;     
  48:.\main.c      ****         uint8 intrStatus;
  49:.\main.c      ****         
  50:.\main.c      ****         /* Single API call to service all the BLE stack events. Must be
  51:.\main.c      ****         * called at least once in a BLE connection interval */ 
  52:.\main.c      ****         CyBle_ProcessEvents();
  53:.\main.c      ****         
  54:.\main.c      ****         /* Update Alert Level value on the blue LED */     
  55:.\main.c      ****         switch(alertLevel)     
  56:.\main.c      ****         {
  57:.\main.c      ****           
  58:.\main.c      ****             case NO_ALERT:         
  59:.\main.c      ****             Alert_LED_Write(LED_OFF);  
  60:.\main.c      ****             if (alertLevel != alertLevelOld) 
  61:.\main.c      ****             {
  62:.\main.c      ****                 iprintf("New alert level is 0.\n\r");
  63:.\main.c      ****                 alertLevelOld = alertLevel;
  64:.\main.c      ****             }
  65:.\main.c      ****             break; 
  66:.\main.c      ****  
  67:.\main.c      ****             case MILD_ALERT:
  68:.\main.c      ****             toggleTimeout++;         
  69:.\main.c      ****             if(toggleTimeout == LED_TOGGLE_TIMEOUT)         
  70:.\main.c      ****             {             
  71:.\main.c      ****                 /* Toggle alert LED after timeout */             
  72:.\main.c      ****                 Alert_LED_Write(Alert_LED_Read() ^ 0x01);
  73:.\main.c      ****                 toggleTimeout = 0;         
  74:.\main.c      ****             }
  75:.\main.c      ****             if (alertLevel != alertLevelOld) 
  76:.\main.c      ****             {
  77:.\main.c      ****                 iprintf("New alert level is 1.\n\r");
  78:.\main.c      ****                 alertLevelOld = alertLevel;
  79:.\main.c      ****             }
  80:.\main.c      ****             break; 
  81:.\main.c      ****  
  82:.\main.c      ****             case HIGH_ALERT:
  83:.\main.c      ****             Alert_LED_Write(LED_ON);
  84:.\main.c      ****             if (alertLevel != alertLevelOld) 
  85:.\main.c      ****             {
  86:.\main.c      ****                 iprintf("New alert level is 2.\n\r");
  87:.\main.c      ****                 alertLevelOld = alertLevel;
  88:.\main.c      ****             }
  89:.\main.c      ****             break;     
ARM GAS  C:\Users\sst5281\AppData\Local\Temp\ccv4Agjo.s 			page 3


  90:.\main.c      ****         } 
  91:.\main.c      ****  
  92:.\main.c      ****         /* Configure BLESS in Deep-Sleep mode */     
  93:.\main.c      ****         CyBle_EnterLPM(CYBLE_BLESS_DEEPSLEEP);          
  94:.\main.c      ****         
  95:.\main.c      ****         /* Prevent interrupts while entering system low power modes */     
  96:.\main.c      ****         intrStatus = CyEnterCriticalSection();          
  97:.\main.c      ****         
  98:.\main.c      ****         /* Get the current state of BLESS block */     
  99:.\main.c      ****         blessState = CyBle_GetBleSsState();          
 100:.\main.c      ****         
 101:.\main.c      ****         /* If BLESS is in Deep-Sleep mode or the XTAL oscillator is turning on,       
 102:.\main.c      ****         * then PSoC 4 BLE can enter Deep-Sleep mode (1.3uA current consumption) */
 103:.\main.c      ****         if(blessState == CYBLE_BLESS_STATE_ECO_ON ||          
 104:.\main.c      ****             blessState == CYBLE_BLESS_STATE_DEEPSLEEP)     
 105:.\main.c      ****         {         
 106:.\main.c      ****             CySysPmDeepSleep();     
 107:.\main.c      ****         }     
 108:.\main.c      ****         else if(blessState != CYBLE_BLESS_STATE_EVENT_CLOSE)     
 109:.\main.c      ****         {         
 110:.\main.c      ****             /* If BLESS is active, then configure PSoC 4 BLE system in
 111:.\main.c      ****             * Sleep mode (~1.6mA current consumption) */         
 112:.\main.c      ****             CySysPmSleep();     
 113:.\main.c      ****         }     
 114:.\main.c      ****         else     
 115:.\main.c      ****         {         
 116:.\main.c      ****             /* Keep trying to enter either Sleep or Deep-Sleep mode */
 117:.\main.c      ****         }     CyExitCriticalSection(intrStatus);    
 118:.\main.c      ****         
 119:.\main.c      ****         /* BLE link layer timing interrupt will wake up the system from Sleep       
 120:.\main.c      ****         * and Deep-Sleep modes */ 
 121:.\main.c      ****     }
 122:.\main.c      **** }
 123:.\main.c      **** 
 124:.\main.c      **** void StackEventHandler(uint32 event, void *eventParam) {     
  26              		.loc 1 124 0
  27              		.cfi_startproc
  28              	.LVL0:
  29 0000 08B5     		push	{r3, lr}
  30              		.cfi_def_cfa_offset 8
  31              		.cfi_offset 3, -8
  32              		.cfi_offset 14, -4
 125:.\main.c      ****     switch(event)     {         /* Mandatory events to be handled by Find Me Target design */      
  33              		.loc 1 125 0
  34 0002 2628     		cmp	r0, #38
  35 0004 1ED0     		beq	.L3
  36 0006 02D8     		bhi	.L4
  37 0008 0128     		cmp	r0, #1
  38 000a 04D0     		beq	.L5
  39 000c 2CE0     		b	.L1
  40              	.L4:
  41 000e 2728     		cmp	r0, #39
  42 0010 0ED0     		beq	.L6
  43 0012 2828     		cmp	r0, #40
  44 0014 28D1     		bne	.L1
  45              	.L5:
 126:.\main.c      ****         case CYBLE_EVT_STACK_ON:         
ARM GAS  C:\Users\sst5281\AppData\Local\Temp\ccv4Agjo.s 			page 4


 127:.\main.c      ****         case CYBLE_EVT_GAP_DEVICE_DISCONNECTED:             
 128:.\main.c      ****             /* Start BLE advertisement for 30 seconds and update link              
 129:.\main.c      ****             * status on LEDs */             
 130:.\main.c      ****             CyBle_GappStartAdvertisement(CYBLE_ADVERTISING_FAST);
  46              		.loc 1 130 0
  47 0016 0020     		mov	r0, #0
  48              	.LVL1:
  49 0018 FFF7FEFF 		bl	CyBle_GappStartAdvertisement
  50              	.LVL2:
 131:.\main.c      ****             Advertising_LED_Write(LED_ON);             
  51              		.loc 1 131 0
  52 001c 0020     		mov	r0, #0
  53 001e FFF7FEFF 		bl	Advertising_LED_Write
  54              	.LVL3:
 132:.\main.c      ****             alertLevel = NO_ALERT;      
  55              		.loc 1 132 0
  56 0022 0022     		mov	r2, #0
  57 0024 114B     		ldr	r3, .L7
  58 0026 1A70     		strb	r2, [r3]
 133:.\main.c      ****             
 134:.\main.c      ****             //Indicate that Advertisment started
 135:.\main.c      ****             iprintf("Advertising is started.\r\n");
  59              		.loc 1 135 0
  60 0028 1148     		ldr	r0, .L7+4
  61 002a FFF7FEFF 		bl	iprintf
  62              	.LVL4:
 136:.\main.c      ****             
 137:.\main.c      ****         break; 
  63              		.loc 1 137 0
  64 002e 1BE0     		b	.L1
  65              	.LVL5:
  66              	.L6:
 138:.\main.c      ****  
 139:.\main.c      ****         case CYBLE_EVT_GAP_DEVICE_CONNECTED:
 140:.\main.c      ****             /* BLE link is established */             
 141:.\main.c      ****             Advertising_LED_Write(LED_OFF);            
  67              		.loc 1 141 0
  68 0030 0120     		mov	r0, #1
  69              	.LVL6:
  70 0032 FFF7FEFF 		bl	Advertising_LED_Write
  71              	.LVL7:
 142:.\main.c      ****             Disconnect_LED_Write(LED_OFF);    
  72              		.loc 1 142 0
  73 0036 0120     		mov	r0, #1
  74 0038 FFF7FEFF 		bl	Disconnect_LED_Write
  75              	.LVL8:
 143:.\main.c      ****             
 144:.\main.c      ****             iprintf("BLE link was established.\r\n");
  76              		.loc 1 144 0
  77 003c 0D48     		ldr	r0, .L7+8
  78 003e FFF7FEFF 		bl	iprintf
  79              	.LVL9:
 145:.\main.c      ****         break;                       
  80              		.loc 1 145 0
  81 0042 11E0     		b	.L1
  82              	.LVL10:
  83              	.L3:
ARM GAS  C:\Users\sst5281\AppData\Local\Temp\ccv4Agjo.s 			page 5


 146:.\main.c      ****             
 147:.\main.c      ****         case CYBLE_EVT_GAPP_ADVERTISEMENT_START_STOP:
 148:.\main.c      ****             if(CyBle_GetState() == CYBLE_STATE_DISCONNECTED)
  84              		.loc 1 148 0
  85 0044 0C4B     		ldr	r3, .L7+12
  86 0046 1B78     		ldrb	r3, [r3]
  87 0048 042B     		cmp	r3, #4
  88 004a 0DD1     		bne	.L1
 149:.\main.c      ****             {
 150:.\main.c      ****                 iprintf("advertising timed out\r\n");
  89              		.loc 1 150 0
  90 004c 0B48     		ldr	r0, .L7+16
  91              	.LVL11:
  92 004e FFF7FEFF 		bl	iprintf
  93              	.LVL12:
 151:.\main.c      ****                 /* Advertisement event timed out, go to low power
 152:.\main.c      ****                 * mode (Stop mode) and wait for device reset
 153:.\main.c      ****                 * event to wake up the device again */
 154:.\main.c      ****                 Advertising_LED_Write(LED_OFF);
  94              		.loc 1 154 0
  95 0052 0120     		mov	r0, #1
  96 0054 FFF7FEFF 		bl	Advertising_LED_Write
  97              	.LVL13:
 155:.\main.c      ****                 Disconnect_LED_Write(LED_ON);
  98              		.loc 1 155 0
  99 0058 0020     		mov	r0, #0
 100 005a FFF7FEFF 		bl	Disconnect_LED_Write
 101              	.LVL14:
 156:.\main.c      ****                 CySysPmSetWakeupPolarity(CY_PM_STOP_WAKEUP_ACTIVE_HIGH);
 102              		.loc 1 156 0
 103 005e 0120     		mov	r0, #1
 104 0060 FFF7FEFF 		bl	CySysPmSetWakeupPolarity
 105              	.LVL15:
 157:.\main.c      ****                 CySysPmStop();                                 
 106              		.loc 1 157 0
 107 0064 FFF7FEFF 		bl	CySysPmStop
 108              	.LVL16:
 109              	.L1:
 158:.\main.c      ****                 /* Code execution will not reach here */             
 159:.\main.c      ****             }         
 160:.\main.c      ****         break; 
 161:.\main.c      ****  
 162:.\main.c      ****         default:         
 163:.\main.c      ****         break;   
 164:.\main.c      ****     } 
 165:.\main.c      **** }
 110              		.loc 1 165 0
 111              		@ sp needed
 112 0068 08BD     		pop	{r3, pc}
 113              	.L8:
 114 006a C046     		.align	2
 115              	.L7:
 116 006c 00000000 		.word	alertLevel
 117 0070 00000000 		.word	.LC1
 118 0074 1C000000 		.word	.LC3
 119 0078 00000000 		.word	cyBle_state
 120 007c 38000000 		.word	.LC6
ARM GAS  C:\Users\sst5281\AppData\Local\Temp\ccv4Agjo.s 			page 6


 121              		.cfi_endproc
 122              	.LFE38:
 123              		.size	StackEventHandler, .-StackEventHandler
 124              		.section	.text.IasEventHandler,"ax",%progbits
 125              		.align	2
 126              		.global	IasEventHandler
 127              		.code	16
 128              		.thumb_func
 129              		.type	IasEventHandler, %function
 130              	IasEventHandler:
 131              	.LFB39:
 166:.\main.c      **** 
 167:.\main.c      **** void IasEventHandler(uint32 event, void *eventParam) {     
 132              		.loc 1 167 0
 133              		.cfi_startproc
 134              	.LVL17:
 135 0000 08B5     		push	{r3, lr}
 136              		.cfi_def_cfa_offset 8
 137              		.cfi_offset 3, -8
 138              		.cfi_offset 14, -4
 168:.\main.c      ****     /* Alert Level Characteristic write event */     
 169:.\main.c      ****     if(event == CYBLE_EVT_IASS_WRITE_CHAR_CMD)     
 139              		.loc 1 169 0
 140 0002 D823     		mov	r3, #216
 141 0004 5B00     		lsl	r3, r3, #1
 142 0006 9842     		cmp	r0, r3
 143 0008 04D1     		bne	.L9
 170:.\main.c      ****     {         
 171:.\main.c      ****         /* Read the updated Alert Level value from the GATT database */         
 172:.\main.c      ****         CyBle_IassGetCharacteristicValue(CYBLE_IAS_ALERT_LEVEL,              
 144              		.loc 1 172 0
 145 000a 0020     		mov	r0, #0
 146              	.LVL18:
 147 000c 0121     		mov	r1, #1
 148              	.LVL19:
 149 000e 024A     		ldr	r2, .L11
 150 0010 FFF7FEFF 		bl	CyBle_IassGetCharacteristicValue
 151              	.LVL20:
 152              	.L9:
 173:.\main.c      ****             sizeof(alertLevel), &alertLevel);
 174:.\main.c      ****     } 
 175:.\main.c      **** }
 153              		.loc 1 175 0
 154              		@ sp needed
 155 0014 08BD     		pop	{r3, pc}
 156              	.L12:
 157 0016 C046     		.align	2
 158              	.L11:
 159 0018 00000000 		.word	alertLevel
 160              		.cfi_endproc
 161              	.LFE39:
 162              		.size	IasEventHandler, .-IasEventHandler
 163              		.section	.text.main,"ax",%progbits
 164              		.align	2
 165              		.global	main
 166              		.code	16
 167              		.thumb_func
ARM GAS  C:\Users\sst5281\AppData\Local\Temp\ccv4Agjo.s 			page 7


 168              		.type	main, %function
 169              	main:
 170              	.LFB37:
  29:.\main.c      ****  
 171              		.loc 1 29 0
 172              		.cfi_startproc
 173 0000 10B5     		push	{r4, lr}
 174              		.cfi_def_cfa_offset 8
 175              		.cfi_offset 4, -8
 176              		.cfi_offset 14, -4
  31:.\main.c      ****  
 177              		.loc 1 31 0
 178              	@ 31 ".\main.c" 1
 179 0002 62B6     		CPSIE   i
 180              	@ 0 "" 2
  33:.\main.c      ****  
 181              		.loc 1 33 0
 182              		.code	16
 183 0004 3848     		ldr	r0, .L24
 184 0006 FFF7FEFF 		bl	CyBle_Start
 185              	.LVL21:
  35:.\main.c      ****         /* BLE stack initialization failed, check your configuration */     
 186              		.loc 1 35 0
 187 000a 0028     		cmp	r0, #0
 188 000c 02D0     		beq	.L14
  37:.\main.c      ****     } 
 189              		.loc 1 37 0 discriminator 1
 190 000e 0020     		mov	r0, #0
 191              	.LVL22:
 192 0010 FFF7FEFF 		bl	CyHalt
 193              	.LVL23:
 194              	.L14:
  40:.\main.c      ****     
 195              		.loc 1 40 0
 196 0014 3548     		ldr	r0, .L24+4
 197 0016 FFF7FEFF 		bl	CyBle_IasRegisterAttrCallback
 198              	.LVL24:
  42:.\main.c      ****     iprintf("Hello World!\n\r");
 199              		.loc 1 42 0
 200 001a FFF7FEFF 		bl	SCB_1_Start
 201              	.LVL25:
  43:.\main.c      ****  
 202              		.loc 1 43 0
 203 001e 3448     		ldr	r0, .L24+8
 204 0020 FFF7FEFF 		bl	iprintf
 205              	.LVL26:
 206              	.L23:
 207              	.LBB2:
  52:.\main.c      ****         
 208              		.loc 1 52 0
 209 0024 FFF7FEFF 		bl	CyBle_ProcessEvents
 210              	.LVL27:
  55:.\main.c      ****         {
 211              		.loc 1 55 0
 212 0028 324B     		ldr	r3, .L24+12
 213 002a 1B78     		ldrb	r3, [r3]
 214 002c 012B     		cmp	r3, #1
ARM GAS  C:\Users\sst5281\AppData\Local\Temp\ccv4Agjo.s 			page 8


 215 002e 15D0     		beq	.L16
 216 0030 002B     		cmp	r3, #0
 217 0032 02D0     		beq	.L17
 218 0034 022B     		cmp	r3, #2
 219 0036 30D0     		beq	.L18
 220 0038 3FE0     		b	.L15
 221              	.L17:
  59:.\main.c      ****             if (alertLevel != alertLevelOld) 
 222              		.loc 1 59 0
 223 003a 0120     		mov	r0, #1
 224 003c FFF7FEFF 		bl	Alert_LED_Write
 225              	.LVL28:
  60:.\main.c      ****             {
 226              		.loc 1 60 0
 227 0040 2C4B     		ldr	r3, .L24+12
 228 0042 1A78     		ldrb	r2, [r3]
 229 0044 2C4B     		ldr	r3, .L24+16
 230 0046 1B78     		ldrb	r3, [r3]
 231 0048 9A42     		cmp	r2, r3
 232 004a 36D0     		beq	.L15
  62:.\main.c      ****                 alertLevelOld = alertLevel;
 233              		.loc 1 62 0
 234 004c 2B48     		ldr	r0, .L24+20
 235 004e FFF7FEFF 		bl	iprintf
 236              	.LVL29:
  63:.\main.c      ****             }
 237              		.loc 1 63 0
 238 0052 284B     		ldr	r3, .L24+12
 239 0054 1A78     		ldrb	r2, [r3]
 240 0056 284B     		ldr	r3, .L24+16
 241 0058 1A70     		strb	r2, [r3]
 242 005a 2EE0     		b	.L15
 243              	.L16:
  68:.\main.c      ****             if(toggleTimeout == LED_TOGGLE_TIMEOUT)         
 244              		.loc 1 68 0
 245 005c 284A     		ldr	r2, .L24+24
 246 005e 1378     		ldrb	r3, [r2]
 247 0060 0133     		add	r3, r3, #1
 248 0062 DBB2     		uxtb	r3, r3
 249 0064 1370     		strb	r3, [r2]
  69:.\main.c      ****             {             
 250              		.loc 1 69 0
 251 0066 642B     		cmp	r3, #100
 252 0068 09D1     		bne	.L19
  72:.\main.c      ****                 toggleTimeout = 0;         
 253              		.loc 1 72 0
 254 006a FFF7FEFF 		bl	Alert_LED_Read
 255              	.LVL30:
 256 006e 0123     		mov	r3, #1
 257 0070 5840     		eor	r0, r3
 258 0072 C0B2     		uxtb	r0, r0
 259 0074 FFF7FEFF 		bl	Alert_LED_Write
 260              	.LVL31:
  73:.\main.c      ****             }
 261              		.loc 1 73 0
 262 0078 0022     		mov	r2, #0
 263 007a 214B     		ldr	r3, .L24+24
ARM GAS  C:\Users\sst5281\AppData\Local\Temp\ccv4Agjo.s 			page 9


 264 007c 1A70     		strb	r2, [r3]
 265              	.L19:
  75:.\main.c      ****             {
 266              		.loc 1 75 0
 267 007e 1D4B     		ldr	r3, .L24+12
 268 0080 1A78     		ldrb	r2, [r3]
 269 0082 1D4B     		ldr	r3, .L24+16
 270 0084 1B78     		ldrb	r3, [r3]
 271 0086 9A42     		cmp	r2, r3
 272 0088 17D0     		beq	.L15
  77:.\main.c      ****                 alertLevelOld = alertLevel;
 273              		.loc 1 77 0
 274 008a 1E48     		ldr	r0, .L24+28
 275 008c FFF7FEFF 		bl	iprintf
 276              	.LVL32:
  78:.\main.c      ****             }
 277              		.loc 1 78 0
 278 0090 184B     		ldr	r3, .L24+12
 279 0092 1A78     		ldrb	r2, [r3]
 280 0094 184B     		ldr	r3, .L24+16
 281 0096 1A70     		strb	r2, [r3]
 282 0098 0FE0     		b	.L15
 283              	.L18:
  83:.\main.c      ****             if (alertLevel != alertLevelOld) 
 284              		.loc 1 83 0
 285 009a 0020     		mov	r0, #0
 286 009c FFF7FEFF 		bl	Alert_LED_Write
 287              	.LVL33:
  84:.\main.c      ****             {
 288              		.loc 1 84 0
 289 00a0 144B     		ldr	r3, .L24+12
 290 00a2 1A78     		ldrb	r2, [r3]
 291 00a4 144B     		ldr	r3, .L24+16
 292 00a6 1B78     		ldrb	r3, [r3]
 293 00a8 9A42     		cmp	r2, r3
 294 00aa 06D0     		beq	.L15
  86:.\main.c      ****                 alertLevelOld = alertLevel;
 295              		.loc 1 86 0
 296 00ac 1648     		ldr	r0, .L24+32
 297 00ae FFF7FEFF 		bl	iprintf
 298              	.LVL34:
  87:.\main.c      ****             }
 299              		.loc 1 87 0
 300 00b2 104B     		ldr	r3, .L24+12
 301 00b4 1A78     		ldrb	r2, [r3]
 302 00b6 104B     		ldr	r3, .L24+16
 303 00b8 1A70     		strb	r2, [r3]
 304              	.L15:
  93:.\main.c      ****         
 305              		.loc 1 93 0
 306 00ba 0320     		mov	r0, #3
 307 00bc FFF7FEFF 		bl	CyBle_EnterLPM
 308              	.LVL35:
  96:.\main.c      ****         
 309              		.loc 1 96 0
 310 00c0 FFF7FEFF 		bl	CyEnterCriticalSection
 311              	.LVL36:
ARM GAS  C:\Users\sst5281\AppData\Local\Temp\ccv4Agjo.s 			page 10


 312 00c4 041C     		mov	r4, r0
 313              	.LVL37:
  99:.\main.c      ****         
 314              		.loc 1 99 0
 315 00c6 FFF7FEFF 		bl	CyBle_GetBleSsState
 316              	.LVL38:
 103:.\main.c      ****             blessState == CYBLE_BLESS_STATE_DEEPSLEEP)     
 317              		.loc 1 103 0
 318 00ca 0428     		cmp	r0, #4
 319 00cc 01D0     		beq	.L20
 103:.\main.c      ****             blessState == CYBLE_BLESS_STATE_DEEPSLEEP)     
 320              		.loc 1 103 0 is_stmt 0 discriminator 1
 321 00ce 0628     		cmp	r0, #6
 322 00d0 02D1     		bne	.L21
 323              	.L20:
 106:.\main.c      ****         }     
 324              		.loc 1 106 0 is_stmt 1
 325 00d2 FFF7FEFF 		bl	CySysPmDeepSleep
 326              	.LVL39:
 327 00d6 03E0     		b	.L22
 328              	.LVL40:
 329              	.L21:
 108:.\main.c      ****         {         
 330              		.loc 1 108 0
 331 00d8 0228     		cmp	r0, #2
 332 00da 01D0     		beq	.L22
 112:.\main.c      ****         }     
 333              		.loc 1 112 0
 334 00dc FFF7FEFF 		bl	CySysPmSleep
 335              	.LVL41:
 336              	.L22:
 117:.\main.c      ****         
 337              		.loc 1 117 0
 338 00e0 201C     		mov	r0, r4
 339 00e2 FFF7FEFF 		bl	CyExitCriticalSection
 340              	.LVL42:
 341              	.LBE2:
 121:.\main.c      **** }
 342              		.loc 1 121 0
 343 00e6 9DE7     		b	.L23
 344              	.L25:
 345              		.align	2
 346              	.L24:
 347 00e8 00000000 		.word	StackEventHandler
 348 00ec 00000000 		.word	IasEventHandler
 349 00f0 50000000 		.word	.LC11
 350 00f4 00000000 		.word	alertLevel
 351 00f8 00000000 		.word	alertLevelOld
 352 00fc 60000000 		.word	.LC15
 353 0100 00000000 		.word	.LANCHOR0
 354 0104 78000000 		.word	.LC18
 355 0108 90000000 		.word	.LC20
 356              		.cfi_endproc
 357              	.LFE37:
 358              		.size	main, .-main
 359              		.comm	alertLevelOld,1,1
 360              		.comm	alertLevel,1,1
ARM GAS  C:\Users\sst5281\AppData\Local\Temp\ccv4Agjo.s 			page 11


 361              		.section	.rodata.str1.4,"aMS",%progbits,1
 362              		.align	2
 363              	.LC1:
 364 0000 41647665 		.ascii	"Advertising is started.\015\012\000"
 364      72746973 
 364      696E6720 
 364      69732073 
 364      74617274 
 365 001a 0000     		.space	2
 366              	.LC3:
 367 001c 424C4520 		.ascii	"BLE link was established.\015\012\000"
 367      6C696E6B 
 367      20776173 
 367      20657374 
 367      61626C69 
 368              	.LC6:
 369 0038 61647665 		.ascii	"advertising timed out\015\012\000"
 369      72746973 
 369      696E6720 
 369      74696D65 
 369      64206F75 
 370              	.LC11:
 371 0050 48656C6C 		.ascii	"Hello World!\012\015\000"
 371      6F20576F 
 371      726C6421 
 371      0A0D00
 372 005f 00       		.space	1
 373              	.LC15:
 374 0060 4E657720 		.ascii	"New alert level is 0.\012\015\000"
 374      616C6572 
 374      74206C65 
 374      76656C20 
 374      69732030 
 375              	.LC18:
 376 0078 4E657720 		.ascii	"New alert level is 1.\012\015\000"
 376      616C6572 
 376      74206C65 
 376      76656C20 
 376      69732031 
 377              	.LC20:
 378 0090 4E657720 		.ascii	"New alert level is 2.\012\015\000"
 378      616C6572 
 378      74206C65 
 378      76656C20 
 378      69732032 
 379              		.bss
 380              		.set	.LANCHOR0,. + 0
 381              		.type	toggleTimeout.6886, %object
 382              		.size	toggleTimeout.6886, 1
 383              	toggleTimeout.6886:
 384 0000 00       		.space	1
 385              		.text
 386              	.Letext0:
 387              		.file 2 "Generated_Source\\PSoC4/cytypes.h"
 388              		.file 3 "Generated_Source\\PSoC4/BLE_Stack.h"
 389              		.file 4 "Generated_Source\\PSoC4/BLE.h"
 390              		.file 5 "Generated_Source\\PSoC4/BLE_ias.h"
ARM GAS  C:\Users\sst5281\AppData\Local\Temp\ccv4Agjo.s 			page 12


 391              		.file 6 "Generated_Source\\PSoC4/BLE_eventHandler.h"
 392              		.file 7 "Generated_Source\\PSoC4/Advertising_LED.h"
 393              		.file 8 ".\\iprintf.h"
 394              		.file 9 "Generated_Source\\PSoC4/Disconnect_LED.h"
 395              		.file 10 "Generated_Source\\PSoC4/cyPm.h"
 396              		.file 11 "Generated_Source\\PSoC4/Alert_LED.h"
 397              		.file 12 "Generated_Source\\PSoC4/CyLib.h"
 398              		.file 13 "Generated_Source\\PSoC4/SCB_1.h"