ARM GAS  C:\Users\sst5281\AppData\Local\Temp\ccTgqW4d.s 			page 1


   1              		.cpu cortex-m0
   2              		.fpu softvfp
   3              		.eabi_attribute 20, 1
   4              		.eabi_attribute 21, 1
   5              		.eabi_attribute 23, 3
   6              		.eabi_attribute 24, 1
   7              		.eabi_attribute 25, 1
   8              		.eabi_attribute 26, 1
   9              		.eabi_attribute 30, 1
  10              		.eabi_attribute 34, 0
  11              		.eabi_attribute 18, 4
  12              		.code	16
  13              		.file	"BLEProcess.c"
  14              		.text
  15              	.Ltext0:
  16              		.cfi_sections	.debug_frame
  17              		.global	__aeabi_idiv
  18              		.section	.text.UpdateRGBLED,"ax",%progbits
  19              		.align	2
  20              		.global	UpdateRGBLED
  21              		.code	16
  22              		.thumb_func
  23              		.type	UpdateRGBLED, %function
  24              	UpdateRGBLED:
  25              	.LFB38:
  26              		.file 1 ".\\BLEProcess.c"
   1:.\BLEProcess.c **** /* ========================================
   2:.\BLEProcess.c ****  *
   3:.\BLEProcess.c ****  * Copyright YOUR COMPANY, THE YEAR
   4:.\BLEProcess.c ****  * All Rights Reserved
   5:.\BLEProcess.c ****  * UNPUBLISHED, LICENSED SOFTWARE.
   6:.\BLEProcess.c ****  *
   7:.\BLEProcess.c ****  * CONFIDENTIAL AND PROPRIETARY INFORMATION
   8:.\BLEProcess.c ****  * WHICH IS THE PROPERTY OF your company.
   9:.\BLEProcess.c ****  *
  10:.\BLEProcess.c ****  * ========================================
  11:.\BLEProcess.c **** */
  12:.\BLEProcess.c **** #include <project.h>
  13:.\BLEProcess.c **** #include "led.h"
  14:.\BLEProcess.c **** #include "BLEProcess.h"
  15:.\BLEProcess.c **** #include "main.h"
  16:.\BLEProcess.c **** 
  17:.\BLEProcess.c **** void GeneralEventHandler(uint32 event, void * eventParam)
  18:.\BLEProcess.c **** {
  19:.\BLEProcess.c ****     /* Structure to store data written by Client */
  20:.\BLEProcess.c ****     CYBLE_GATTS_WRITE_REQ_PARAM_T *wrReqParam;
  21:.\BLEProcess.c ****     
  22:.\BLEProcess.c ****     /* 'RGBledData[]' is an array to store 4 bytes of RGB LED data*/
  23:.\BLEProcess.c ****     uint8 RGBledData[RGB_CHAR_DATA_LEN];
  24:.\BLEProcess.c ****     switch(event)
  25:.\BLEProcess.c ****     {
  26:.\BLEProcess.c ****         case CYBLE_EVT_STACK_ON:
  27:.\BLEProcess.c ****         /* BLE stack is on. Start BLE advertisement */
  28:.\BLEProcess.c ****         CyBle_GappStartAdvertisement(CYBLE_ADVERTISING_FAST);
  29:.\BLEProcess.c ****         break;
  30:.\BLEProcess.c ****         
  31:.\BLEProcess.c ****         case CYBLE_EVT_GAP_DEVICE_DISCONNECTED:
ARM GAS  C:\Users\sst5281\AppData\Local\Temp\ccTgqW4d.s 			page 2


  32:.\BLEProcess.c ****         /* This event is generated at GAP disconnection. */
  33:.\BLEProcess.c ****         
  34:.\BLEProcess.c ****         /* Reset the color values*/
  35:.\BLEProcess.c ****         RGBledData[RED_INDEX] = FALSE;
  36:.\BLEProcess.c ****         RGBledData[GREEN_INDEX] = FALSE;
  37:.\BLEProcess.c ****         RGBledData[BLUE_INDEX] = FALSE;
  38:.\BLEProcess.c ****         RGBledData[INTENSITY_INDEX] = FALSE;
  39:.\BLEProcess.c ****         
  40:.\BLEProcess.c ****         /* Switch off LEDs */
  41:.\BLEProcess.c ****         UpdateRGBLED(RGBledData, sizeof(RGBledData));
  42:.\BLEProcess.c ****         
  43:.\BLEProcess.c ****         /* Register the new color in GATT DB*/
  44:.\BLEProcess.c ****         UpdateRGBcharacteristic(RGBledData, sizeof(RGBledData),
  45:.\BLEProcess.c ****         CYBLE_RGB_LED_RGB_LED_CONTROL_CHAR_HANDLE);
  46:.\BLEProcess.c ****        
  47:.\BLEProcess.c ****         /* Restart advertisement */
  48:.\BLEProcess.c ****         CyBle_GappStartAdvertisement(CYBLE_ADVERTISING_FAST);
  49:.\BLEProcess.c ****         break;
  50:.\BLEProcess.c ****         
  51:.\BLEProcess.c ****         case CYBLE_EVT_GATTS_WRITE_REQ:
  52:.\BLEProcess.c ****         /* Extract the Write data sent by Client */
  53:.\BLEProcess.c ****         wrReqParam = (CYBLE_GATTS_WRITE_REQ_PARAM_T *) eventParam;
  54:.\BLEProcess.c ****         
  55:.\BLEProcess.c ****         /* If the attribute handle of the characteristic written to
  56:.\BLEProcess.c ****         * is equal to that of RGB_LED characteristic, then extract
  57:.\BLEProcess.c ****         * the RGB LED data */
  58:.\BLEProcess.c ****         if(CYBLE_RGB_LED_RGB_LED_CONTROL_CHAR_HANDLE == wrReqParam->handleValPair.attrHandle)
  59:.\BLEProcess.c ****         {
  60:.\BLEProcess.c ****             /* Store RGB LED data in local array */
  61:.\BLEProcess.c ****             RGBledData[RED_INDEX] =
  62:.\BLEProcess.c ****             wrReqParam->handleValPair.value.val[RED_INDEX];
  63:.\BLEProcess.c ****             RGBledData[GREEN_INDEX] =
  64:.\BLEProcess.c ****             wrReqParam->handleValPair.value.val[GREEN_INDEX];
  65:.\BLEProcess.c ****             RGBledData[BLUE_INDEX] =
  66:.\BLEProcess.c ****             wrReqParam->handleValPair.value.val[BLUE_INDEX];
  67:.\BLEProcess.c ****             RGBledData[INTENSITY_INDEX] =
  68:.\BLEProcess.c ****             wrReqParam->handleValPair.value.val[INTENSITY_INDEX];
  69:.\BLEProcess.c ****             /* Update the PrISM component density value to represent color */
  70:.\BLEProcess.c ****             UpdateRGBLED(RGBledData, sizeof(RGBledData));
  71:.\BLEProcess.c ****             /* Update the GATT DB for RGB LED read characteristics*/
  72:.\BLEProcess.c ****             UpdateRGBcharacteristic(RGBledData,
  73:.\BLEProcess.c ****             sizeof(RGBledData),
  74:.\BLEProcess.c ****             CYBLE_RGB_LED_RGB_LED_CONTROL_CHAR_HANDLE);
  75:.\BLEProcess.c ****         }
  76:.\BLEProcess.c ****         /* Send the response to the write request received. */
  77:.\BLEProcess.c ****         CyBle_GattsWriteRsp(cyBle_connHandle);
  78:.\BLEProcess.c ****         break;
  79:.\BLEProcess.c ****         
  80:.\BLEProcess.c ****         default:
  81:.\BLEProcess.c ****         break;
  82:.\BLEProcess.c ****     }
  83:.\BLEProcess.c **** }
  84:.\BLEProcess.c **** 
  85:.\BLEProcess.c **** void UpdateRGBLED(uint8* ledData, uint8 len)
  86:.\BLEProcess.c **** {
  27              		.loc 1 86 0
  28              		.cfi_startproc
ARM GAS  C:\Users\sst5281\AppData\Local\Temp\ccTgqW4d.s 			page 3


  29              	.LVL0:
  30 0000 F8B5     		push	{r3, r4, r5, r6, r7, lr}
  31              		.cfi_def_cfa_offset 24
  32              		.cfi_offset 3, -24
  33              		.cfi_offset 4, -20
  34              		.cfi_offset 5, -16
  35              		.cfi_offset 6, -12
  36              		.cfi_offset 7, -8
  37              		.cfi_offset 14, -4
  87:.\BLEProcess.c ****     /* Local variables to store calculated color components */
  88:.\BLEProcess.c ****     uint8 calc_red;
  89:.\BLEProcess.c ****     uint8 calc_green;
  90:.\BLEProcess.c ****     uint8 calc_blue;
  91:.\BLEProcess.c ****     /* Check if the array has length equal to expected length for
  92:.\BLEProcess.c ****     * RGB LED data */
  93:.\BLEProcess.c ****     if(len == RGB_CHAR_DATA_LEN)
  38              		.loc 1 93 0
  39 0002 0429     		cmp	r1, #4
  40 0004 1FD1     		bne	.L1
  41 0006 041C     		mov	r4, r0
  94:.\BLEProcess.c ****     {
  95:.\BLEProcess.c ****         /* True color to be displayed is calculated on basis of color
  96:.\BLEProcess.c ****         * and intensity value received */
  97:.\BLEProcess.c ****         calc_red = (uint8)
  98:.\BLEProcess.c ****         (((uint16)ledData[RED_INDEX]*ledData[INTENSITY_INDEX])/RGB_LED_MAX_VAL);
  42              		.loc 1 98 0
  43 0008 0078     		ldrb	r0, [r0]
  44              	.LVL1:
  45 000a E778     		ldrb	r7, [r4, #3]
  46 000c 7843     		mul	r0, r7
  47 000e FB31     		add	r1, r1, #251
  48              	.LVL2:
  49 0010 FFF7FEFF 		bl	__aeabi_idiv
  50              	.LVL3:
  97:.\BLEProcess.c ****         (((uint16)ledData[RED_INDEX]*ledData[INTENSITY_INDEX])/RGB_LED_MAX_VAL);
  51              		.loc 1 97 0
  52 0014 C6B2     		uxtb	r6, r0
  53              	.LVL4:
  99:.\BLEProcess.c ****         calc_green = (uint8)
 100:.\BLEProcess.c ****         (((uint16)ledData[GREEN_INDEX]*ledData[INTENSITY_INDEX])/RGB_LED_MAX_VAL);
  54              		.loc 1 100 0
  55 0016 6078     		ldrb	r0, [r4, #1]
  56 0018 7843     		mul	r0, r7
  57 001a FF21     		mov	r1, #255
  58 001c FFF7FEFF 		bl	__aeabi_idiv
  59              	.LVL5:
  99:.\BLEProcess.c ****         calc_green = (uint8)
  60              		.loc 1 99 0
  61 0020 C5B2     		uxtb	r5, r0
  62              	.LVL6:
 101:.\BLEProcess.c ****         calc_blue = (uint8)
 102:.\BLEProcess.c ****         (((uint16)ledData[BLUE_INDEX]*ledData[INTENSITY_INDEX])/RGB_LED_MAX_VAL);
  63              		.loc 1 102 0
  64 0022 A078     		ldrb	r0, [r4, #2]
  65 0024 7843     		mul	r0, r7
  66 0026 FF21     		mov	r1, #255
  67 0028 FFF7FEFF 		bl	__aeabi_idiv
ARM GAS  C:\Users\sst5281\AppData\Local\Temp\ccTgqW4d.s 			page 4


  68              	.LVL7:
 101:.\BLEProcess.c ****         calc_blue = (uint8)
  69              		.loc 1 101 0
  70 002c C4B2     		uxtb	r4, r0
  71              	.LVL8:
 103:.\BLEProcess.c ****         /* Update the density value of the PrISM module */
 104:.\BLEProcess.c ****         PrISM_1_WritePulse0(RGB_LED_MAX_VAL - calc_red);
  72              		.loc 1 104 0
  73 002e F043     		mvn	r0, r6
  74 0030 C0B2     		uxtb	r0, r0
  75 0032 FFF7FEFF 		bl	PrISM_1_WritePulse0
  76              	.LVL9:
 105:.\BLEProcess.c ****         PrISM_1_WritePulse1(RGB_LED_MAX_VAL - calc_green);
  77              		.loc 1 105 0
  78 0036 E843     		mvn	r0, r5
  79 0038 C0B2     		uxtb	r0, r0
  80 003a FFF7FEFF 		bl	PrISM_1_WritePulse1
  81              	.LVL10:
 106:.\BLEProcess.c ****         PrISM_2_WritePulse0(RGB_LED_MAX_VAL - calc_blue);
  82              		.loc 1 106 0
  83 003e E043     		mvn	r0, r4
  84 0040 C0B2     		uxtb	r0, r0
  85 0042 FFF7FEFF 		bl	PrISM_2_WritePulse0
  86              	.LVL11:
  87              	.L1:
 107:.\BLEProcess.c ****     }
 108:.\BLEProcess.c **** }
  88              		.loc 1 108 0
  89              		@ sp needed
  90 0046 F8BD     		pop	{r3, r4, r5, r6, r7, pc}
  91              		.cfi_endproc
  92              	.LFE38:
  93              		.size	UpdateRGBLED, .-UpdateRGBLED
  94              		.section	.text.UpdateRGBcharacteristic,"ax",%progbits
  95              		.align	2
  96              		.global	UpdateRGBcharacteristic
  97              		.code	16
  98              		.thumb_func
  99              		.type	UpdateRGBcharacteristic, %function
 100              	UpdateRGBcharacteristic:
 101              	.LFB39:
 109:.\BLEProcess.c **** 
 110:.\BLEProcess.c **** void UpdateRGBcharacteristic(uint8* ledData, uint8 len, uint16 attrHandle)
 111:.\BLEProcess.c **** {
 102              		.loc 1 111 0
 103              		.cfi_startproc
 104              	.LVL12:
 105 0000 00B5     		push	{lr}
 106              		.cfi_def_cfa_offset 4
 107              		.cfi_offset 14, -4
 108 0002 85B0     		sub	sp, sp, #20
 109              		.cfi_def_cfa_offset 24
 112:.\BLEProcess.c ****     /* 'rgbHandle' stores RGB control data parameters */
 113:.\BLEProcess.c ****     CYBLE_GATT_HANDLE_VALUE_PAIR_T rgbHandle;
 114:.\BLEProcess.c ****     /* Update RGB control handle with new values */
 115:.\BLEProcess.c ****     rgbHandle.attrHandle = attrHandle;
 110              		.loc 1 115 0
ARM GAS  C:\Users\sst5281\AppData\Local\Temp\ccTgqW4d.s 			page 5


 111 0004 01AB     		add	r3, sp, #4
 112 0006 1A81     		strh	r2, [r3, #8]
 116:.\BLEProcess.c ****     rgbHandle.value.val = ledData;
 113              		.loc 1 116 0
 114 0008 0190     		str	r0, [sp, #4]
 117:.\BLEProcess.c ****     rgbHandle.value.len = len;
 115              		.loc 1 117 0
 116 000a 9980     		strh	r1, [r3, #4]
 118:.\BLEProcess.c ****     /* Update the RGB LED attribute value. This will allow
 119:.\BLEProcess.c ****     * Client device to read the existing color values over
 120:.\BLEProcess.c ****     * RGB LED characteristic */
 121:.\BLEProcess.c ****     CyBle_GattsWriteAttributeValue(&rgbHandle,FALSE,&cyBle_connHandle,CYBLE_GATT_DB_PEER_INITIATED)
 117              		.loc 1 121 0
 118 000c 181C     		mov	r0, r3
 119              	.LVL13:
 120 000e 0021     		mov	r1, #0
 121              	.LVL14:
 122 0010 024A     		ldr	r2, .L4
 123              	.LVL15:
 124 0012 4023     		mov	r3, #64
 125 0014 FFF7FEFF 		bl	CyBle_GattsWriteAttributeValue
 126              	.LVL16:
 122:.\BLEProcess.c **** }
 127              		.loc 1 122 0
 128 0018 05B0     		add	sp, sp, #20
 129              		@ sp needed
 130 001a 00BD     		pop	{pc}
 131              	.L5:
 132              		.align	2
 133              	.L4:
 134 001c 00000000 		.word	cyBle_connHandle
 135              		.cfi_endproc
 136              	.LFE39:
 137              		.size	UpdateRGBcharacteristic, .-UpdateRGBcharacteristic
 138              		.section	.text.GeneralEventHandler,"ax",%progbits
 139              		.align	2
 140              		.global	GeneralEventHandler
 141              		.code	16
 142              		.thumb_func
 143              		.type	GeneralEventHandler, %function
 144              	GeneralEventHandler:
 145              	.LFB37:
  18:.\BLEProcess.c ****     /* Structure to store data written by Client */
 146              		.loc 1 18 0
 147              		.cfi_startproc
 148              	.LVL17:
 149 0000 10B5     		push	{r4, lr}
 150              		.cfi_def_cfa_offset 8
 151              		.cfi_offset 4, -8
 152              		.cfi_offset 14, -4
 153 0002 82B0     		sub	sp, sp, #8
 154              		.cfi_def_cfa_offset 16
  24:.\BLEProcess.c ****     {
 155              		.loc 1 24 0
 156 0004 2828     		cmp	r0, #40
 157 0006 07D0     		beq	.L8
 158 0008 4C28     		cmp	r0, #76
ARM GAS  C:\Users\sst5281\AppData\Local\Temp\ccTgqW4d.s 			page 6


 159 000a 18D0     		beq	.L9
 160 000c 0128     		cmp	r0, #1
 161 000e 33D1     		bne	.L6
  28:.\BLEProcess.c ****         break;
 162              		.loc 1 28 0
 163 0010 0020     		mov	r0, #0
 164              	.LVL18:
 165 0012 FFF7FEFF 		bl	CyBle_GappStartAdvertisement
 166              	.LVL19:
  29:.\BLEProcess.c ****         
 167              		.loc 1 29 0
 168 0016 2FE0     		b	.L6
 169              	.LVL20:
 170              	.L8:
  35:.\BLEProcess.c ****         RGBledData[GREEN_INDEX] = FALSE;
 171              		.loc 1 35 0
 172 0018 01AC     		add	r4, sp, #4
 173 001a 0023     		mov	r3, #0
 174 001c 2370     		strb	r3, [r4]
  36:.\BLEProcess.c ****         RGBledData[BLUE_INDEX] = FALSE;
 175              		.loc 1 36 0
 176 001e 6370     		strb	r3, [r4, #1]
  37:.\BLEProcess.c ****         RGBledData[INTENSITY_INDEX] = FALSE;
 177              		.loc 1 37 0
 178 0020 A370     		strb	r3, [r4, #2]
  38:.\BLEProcess.c ****         
 179              		.loc 1 38 0
 180 0022 E370     		strb	r3, [r4, #3]
  41:.\BLEProcess.c ****         
 181              		.loc 1 41 0
 182 0024 201C     		mov	r0, r4
 183              	.LVL21:
 184 0026 0421     		mov	r1, #4
 185              	.LVL22:
 186 0028 FFF7FEFF 		bl	UpdateRGBLED
 187              	.LVL23:
  44:.\BLEProcess.c ****         CYBLE_RGB_LED_RGB_LED_CONTROL_CHAR_HANDLE);
 188              		.loc 1 44 0
 189 002c 201C     		mov	r0, r4
 190 002e 0421     		mov	r1, #4
 191 0030 1022     		mov	r2, #16
 192 0032 FFF7FEFF 		bl	UpdateRGBcharacteristic
 193              	.LVL24:
  48:.\BLEProcess.c ****         break;
 194              		.loc 1 48 0
 195 0036 0020     		mov	r0, #0
 196 0038 FFF7FEFF 		bl	CyBle_GappStartAdvertisement
 197              	.LVL25:
  49:.\BLEProcess.c ****         
 198              		.loc 1 49 0
 199 003c 1CE0     		b	.L6
 200              	.LVL26:
 201              	.L9:
  58:.\BLEProcess.c ****         {
 202              		.loc 1 58 0
 203 003e 8B89     		ldrh	r3, [r1, #12]
 204 0040 102B     		cmp	r3, #16
ARM GAS  C:\Users\sst5281\AppData\Local\Temp\ccTgqW4d.s 			page 7


 205 0042 12D1     		bne	.L11
  62:.\BLEProcess.c ****             RGBledData[GREEN_INDEX] =
 206              		.loc 1 62 0
 207 0044 4B68     		ldr	r3, [r1, #4]
 208 0046 1A78     		ldrb	r2, [r3]
  61:.\BLEProcess.c ****             wrReqParam->handleValPair.value.val[RED_INDEX];
 209              		.loc 1 61 0
 210 0048 01AC     		add	r4, sp, #4
 211 004a 2270     		strb	r2, [r4]
  63:.\BLEProcess.c ****             wrReqParam->handleValPair.value.val[GREEN_INDEX];
 212              		.loc 1 63 0
 213 004c 5A78     		ldrb	r2, [r3, #1]
 214 004e 6270     		strb	r2, [r4, #1]
  65:.\BLEProcess.c ****             wrReqParam->handleValPair.value.val[BLUE_INDEX];
 215              		.loc 1 65 0
 216 0050 9A78     		ldrb	r2, [r3, #2]
 217 0052 A270     		strb	r2, [r4, #2]
  67:.\BLEProcess.c ****             wrReqParam->handleValPair.value.val[INTENSITY_INDEX];
 218              		.loc 1 67 0
 219 0054 DB78     		ldrb	r3, [r3, #3]
 220 0056 E370     		strb	r3, [r4, #3]
  70:.\BLEProcess.c ****             /* Update the GATT DB for RGB LED read characteristics*/
 221              		.loc 1 70 0
 222 0058 201C     		mov	r0, r4
 223              	.LVL27:
 224 005a 0421     		mov	r1, #4
 225              	.LVL28:
 226 005c FFF7FEFF 		bl	UpdateRGBLED
 227              	.LVL29:
  72:.\BLEProcess.c ****             sizeof(RGBledData),
 228              		.loc 1 72 0
 229 0060 201C     		mov	r0, r4
 230 0062 0421     		mov	r1, #4
 231 0064 1022     		mov	r2, #16
 232 0066 FFF7FEFF 		bl	UpdateRGBcharacteristic
 233              	.LVL30:
 234              	.L11:
  77:.\BLEProcess.c ****         break;
 235              		.loc 1 77 0
 236 006a 044A     		ldr	r2, .L12
 237 006c 1378     		ldrb	r3, [r2]
 238 006e 5078     		ldrb	r0, [r2, #1]
 239 0070 0002     		lsl	r0, r0, #8
 240 0072 1843     		orr	r0, r3
 241 0074 FFF7FEFF 		bl	CyBle_GattsWriteRsp
 242              	.LVL31:
 243              	.L6:
  83:.\BLEProcess.c **** 
 244              		.loc 1 83 0
 245 0078 02B0     		add	sp, sp, #8
 246              		@ sp needed
 247 007a 10BD     		pop	{r4, pc}
 248              	.L13:
 249              		.align	2
 250              	.L12:
 251 007c 00000000 		.word	cyBle_connHandle
 252              		.cfi_endproc
ARM GAS  C:\Users\sst5281\AppData\Local\Temp\ccTgqW4d.s 			page 8


 253              	.LFE37:
 254              		.size	GeneralEventHandler, .-GeneralEventHandler
 255              		.text
 256              	.Letext0:
 257              		.file 2 "Generated_Source\\PSoC4/cytypes.h"
 258              		.file 3 "Generated_Source\\PSoC4/BLE_1_Stack.h"
 259              		.file 4 "Generated_Source\\PSoC4/BLE_1_StackGatt.h"
 260              		.file 5 "Generated_Source\\PSoC4/BLE_1_StackGattServer.h"
 261              		.file 6 "Generated_Source\\PSoC4/PrISM_1.h"
 262              		.file 7 "Generated_Source\\PSoC4/PrISM_2.h"
 263              		.file 8 "Generated_Source\\PSoC4/BLE_1_StackGattDb.h"
 264              		.file 9 "Generated_Source\\PSoC4/BLE_1.h"
 265              		.file 10 "Generated_Source\\PSoC4/BLE_1_eventHandler.h"