ARM GAS  C:\Users\sst5281\AppData\Local\Temp\ccIP8Ltc.s 			page 1


   1              		.cpu cortex-m0
   2              		.fpu softvfp
   3              		.eabi_attribute 20, 1
   4              		.eabi_attribute 21, 1
   5              		.eabi_attribute 23, 3
   6              		.eabi_attribute 24, 1
   7              		.eabi_attribute 25, 1
   8              		.eabi_attribute 26, 1
   9              		.eabi_attribute 30, 1
  10              		.eabi_attribute 34, 0
  11              		.eabi_attribute 18, 4
  12              		.code	16
  13              		.file	"main.c"
  14              		.text
  15              	.Ltext0:
  16              		.cfi_sections	.debug_frame
  17              		.section	.text.InitializeSystem,"ax",%progbits
  18              		.align	2
  19              		.global	InitializeSystem
  20              		.code	16
  21              		.thumb_func
  22              		.type	InitializeSystem, %function
  23              	InitializeSystem:
  24              	.LFB38:
  25              		.file 1 ".\\main.c"
   1:.\main.c      **** /* ========================================
   2:.\main.c      ****  *
   3:.\main.c      ****  * Copyright YOUR COMPANY, THE YEAR
   4:.\main.c      ****  * All Rights Reserved
   5:.\main.c      ****  * UNPUBLISHED, LICENSED SOFTWARE.
   6:.\main.c      ****  *
   7:.\main.c      ****  * CONFIDENTIAL AND PROPRIETARY INFORMATION
   8:.\main.c      ****  * WHICH IS THE PROPERTY OF your company.
   9:.\main.c      ****  *
  10:.\main.c      ****  * ========================================
  11:.\main.c      **** */
  12:.\main.c      **** #include <project.h>
  13:.\main.c      **** #include "led.h"
  14:.\main.c      **** #include "BLEProcess.h"
  15:.\main.c      **** #include "main.h"
  16:.\main.c      **** 
  17:.\main.c      **** int main()
  18:.\main.c      **** {
  19:.\main.c      ****     InitializeSystem();   
  20:.\main.c      **** 
  21:.\main.c      ****     for(;;)
  22:.\main.c      ****     {
  23:.\main.c      ****         /* Process BLE Events. This generates events in the callback function */
  24:.\main.c      ****         CyBle_ProcessEvents();
  25:.\main.c      ****     }
  26:.\main.c      **** }
  27:.\main.c      **** 
  28:.\main.c      **** void InitializeSystem(void)
  29:.\main.c      **** {
  26              		.loc 1 29 0
  27              		.cfi_startproc
  28 0000 08B5     		push	{r3, lr}
ARM GAS  C:\Users\sst5281\AppData\Local\Temp\ccIP8Ltc.s 			page 2


  29              		.cfi_def_cfa_offset 8
  30              		.cfi_offset 3, -8
  31              		.cfi_offset 14, -4
  30:.\main.c      ****     /* Enable Global Interrrupt Mask */
  31:.\main.c      ****     CyGlobalIntEnable;
  32              		.loc 1 31 0
  33              	@ 31 ".\main.c" 1
  34 0002 62B6     		CPSIE   i
  35              	@ 0 "" 2
  32:.\main.c      ****     
  33:.\main.c      ****     /* Start BLE stack and register the event callback function. */
  34:.\main.c      ****     CyBle_Start(GeneralEventHandler);
  36              		.loc 1 34 0
  37              		.code	16
  38 0004 0C48     		ldr	r0, .L2
  39 0006 FFF7FEFF 		bl	CyBle_Start
  40              	.LVL0:
  35:.\main.c      ****     
  36:.\main.c      ****     /* Start PrISM modules for LED control */
  37:.\main.c      ****     PrISM_1_Start();
  41              		.loc 1 37 0
  42 000a FFF7FEFF 		bl	PrISM_1_Start
  43              	.LVL1:
  38:.\main.c      ****     PrISM_2_Start();
  44              		.loc 1 38 0
  45 000e FFF7FEFF 		bl	PrISM_2_Start
  46              	.LVL2:
  39:.\main.c      ****     
  40:.\main.c      ****     /* Switch off the RGB LEDs through PrISM modules */
  41:.\main.c      ****     PrISM_1_WritePulse0(RGB_LED_OFF);
  47              		.loc 1 41 0
  48 0012 FF20     		mov	r0, #255
  49 0014 FFF7FEFF 		bl	PrISM_1_WritePulse0
  50              	.LVL3:
  42:.\main.c      ****     PrISM_1_WritePulse1(RGB_LED_OFF);
  51              		.loc 1 42 0
  52 0018 FF20     		mov	r0, #255
  53 001a FFF7FEFF 		bl	PrISM_1_WritePulse1
  54              	.LVL4:
  43:.\main.c      ****     PrISM_2_WritePulse0(RGB_LED_OFF);
  55              		.loc 1 43 0
  56 001e FF20     		mov	r0, #255
  57 0020 FFF7FEFF 		bl	PrISM_2_WritePulse0
  58              	.LVL5:
  44:.\main.c      ****     
  45:.\main.c      ****     /* Set Drive modes of the output pins to Strong */
  46:.\main.c      ****     RED_SetDriveMode(RED_DM_STRONG);
  59              		.loc 1 46 0
  60 0024 0620     		mov	r0, #6
  61 0026 FFF7FEFF 		bl	RED_SetDriveMode
  62              	.LVL6:
  47:.\main.c      ****     GREEN_SetDriveMode(GREEN_DM_STRONG);
  63              		.loc 1 47 0
  64 002a 0620     		mov	r0, #6
  65 002c FFF7FEFF 		bl	GREEN_SetDriveMode
  66              	.LVL7:
  48:.\main.c      ****     BLUE_SetDriveMode(BLUE_DM_STRONG);
ARM GAS  C:\Users\sst5281\AppData\Local\Temp\ccIP8Ltc.s 			page 3


  67              		.loc 1 48 0
  68 0030 0620     		mov	r0, #6
  69 0032 FFF7FEFF 		bl	BLUE_SetDriveMode
  70              	.LVL8:
  49:.\main.c      **** }
  71              		.loc 1 49 0
  72              		@ sp needed
  73 0036 08BD     		pop	{r3, pc}
  74              	.L3:
  75              		.align	2
  76              	.L2:
  77 0038 00000000 		.word	GeneralEventHandler
  78              		.cfi_endproc
  79              	.LFE38:
  80              		.size	InitializeSystem, .-InitializeSystem
  81              		.section	.text.main,"ax",%progbits
  82              		.align	2
  83              		.global	main
  84              		.code	16
  85              		.thumb_func
  86              		.type	main, %function
  87              	main:
  88              	.LFB37:
  18:.\main.c      ****     InitializeSystem();   
  89              		.loc 1 18 0
  90              		.cfi_startproc
  91 0000 08B5     		push	{r3, lr}
  92              		.cfi_def_cfa_offset 8
  93              		.cfi_offset 3, -8
  94              		.cfi_offset 14, -4
  19:.\main.c      **** 
  95              		.loc 1 19 0
  96 0002 FFF7FEFF 		bl	InitializeSystem
  97              	.LVL9:
  98              	.L5:
  24:.\main.c      ****     }
  99              		.loc 1 24 0 discriminator 1
 100 0006 FFF7FEFF 		bl	CyBle_ProcessEvents
 101              	.LVL10:
  25:.\main.c      **** }
 102              		.loc 1 25 0 discriminator 1
 103 000a FCE7     		b	.L5
 104              		.cfi_endproc
 105              	.LFE37:
 106              		.size	main, .-main
 107              		.text
 108              	.Letext0:
 109              		.file 2 "Generated_Source\\PSoC4/cytypes.h"
 110              		.file 3 "Generated_Source\\PSoC4/BLE_1_Stack.h"
 111              		.file 4 "Generated_Source\\PSoC4/BLE_1.h"
 112              		.file 5 "Generated_Source\\PSoC4/PrISM_1.h"
 113              		.file 6 "Generated_Source\\PSoC4/PrISM_2.h"
 114              		.file 7 "Generated_Source\\PSoC4/RED.h"
 115              		.file 8 "Generated_Source\\PSoC4/GREEN.h"
 116              		.file 9 "Generated_Source\\PSoC4/BLUE.h"